Archive member included to satisfy reference by file (symbol)

d:/environment/gcc-arm-none-eabi/bin/../lib/gcc/arm-none-eabi/9.2.1/thumb/v7-m/nofp\libgcc.a(_arm_muldf3.o)
                              CMakeFiles/13_demo_OLED_FLOAT.elf.dir/Drivers/DMP/DMP_test.c.obj (__aeabi_dmul)
d:/environment/gcc-arm-none-eabi/bin/../lib/gcc/arm-none-eabi/9.2.1/thumb/v7-m/nofp\libgcc.a(_arm_mulsf3.o)
                              CMakeFiles/13_demo_OLED_FLOAT.elf.dir/Core/Src/oled12864.c.obj (__aeabi_fmul)
d:/environment/gcc-arm-none-eabi/bin/../lib/gcc/arm-none-eabi/9.2.1/thumb/v7-m/nofp\libgcc.a(_arm_addsubdf3.o)
                              CMakeFiles/13_demo_OLED_FLOAT.elf.dir/Core/Src/main.c.obj (__aeabi_f2d)
d:/environment/gcc-arm-none-eabi/bin/../lib/gcc/arm-none-eabi/9.2.1/thumb/v7-m/nofp\libgcc.a(_arm_truncdfsf2.o)
                              CMakeFiles/13_demo_OLED_FLOAT.elf.dir/Drivers/DMP/DMP_test.c.obj (__aeabi_d2f)
d:/environment/gcc-arm-none-eabi/bin/../lib/gcc/arm-none-eabi/9.2.1/thumb/v7-m/nofp\libgcc.a(_arm_addsubsf3.o)
                              CMakeFiles/13_demo_OLED_FLOAT.elf.dir/Core/Src/oled12864.c.obj (__aeabi_fsub)
d:/environment/gcc-arm-none-eabi/bin/../lib/gcc/arm-none-eabi/9.2.1/thumb/v7-m/nofp\libgcc.a(_arm_muldivsf3.o)
                              CMakeFiles/13_demo_OLED_FLOAT.elf.dir/Core/Src/main.c.obj (__aeabi_fdiv)
d:/environment/gcc-arm-none-eabi/bin/../lib/gcc/arm-none-eabi/9.2.1/thumb/v7-m/nofp\libgcc.a(_arm_cmpsf2.o)
                              CMakeFiles/13_demo_OLED_FLOAT.elf.dir/Drivers/DMP/inv_mpu.c.obj (__aeabi_fcmpeq)
d:/environment/gcc-arm-none-eabi/bin/../lib/gcc/arm-none-eabi/9.2.1/thumb/v7-m/nofp\libgcc.a(_arm_fixsfsi.o)
                              CMakeFiles/13_demo_OLED_FLOAT.elf.dir/Core/Src/oled12864.c.obj (__aeabi_f2iz)
d:/environment/gcc-arm-none-eabi/bin/../lib/gcc/arm-none-eabi/9.2.1/thumb/v7-m/nofp\libgcc.a(_arm_fixunssfsi.o)
                              CMakeFiles/13_demo_OLED_FLOAT.elf.dir/Drivers/DMP/inv_mpu_dmp_motion_driver.c.obj (__aeabi_f2uiz)
d:/environment/gcc-arm-none-eabi/bin/../lib/gcc/arm-none-eabi/9.2.1/thumb/v7-m/nofp\libgcc.a(_aeabi_ldivmod.o)
                              CMakeFiles/13_demo_OLED_FLOAT.elf.dir/Drivers/DMP/inv_mpu.c.obj (__aeabi_ldivmod)
d:/environment/gcc-arm-none-eabi/bin/../lib/gcc/arm-none-eabi/9.2.1/thumb/v7-m/nofp\libgcc.a(_udivmoddi4.o)
                              d:/environment/gcc-arm-none-eabi/bin/../lib/gcc/arm-none-eabi/9.2.1/thumb/v7-m/nofp\libgcc.a(_aeabi_ldivmod.o) (__udivmoddi4)
d:/environment/gcc-arm-none-eabi/bin/../lib/gcc/arm-none-eabi/9.2.1/thumb/v7-m/nofp\libgcc.a(_dvmd_tls.o)
                              d:/environment/gcc-arm-none-eabi/bin/../lib/gcc/arm-none-eabi/9.2.1/thumb/v7-m/nofp\libgcc.a(_aeabi_ldivmod.o) (__aeabi_ldiv0)
d:/environment/gcc-arm-none-eabi/bin/../lib/gcc/arm-none-eabi/9.2.1/../../../../arm-none-eabi/lib/thumb/v7-m/nofp\libg.a(lib_a-errno.o)
                              CMakeFiles/13_demo_OLED_FLOAT.elf.dir/Core/Src/syscalls.c.obj (__errno)
d:/environment/gcc-arm-none-eabi/bin/../lib/gcc/arm-none-eabi/9.2.1/../../../../arm-none-eabi/lib/thumb/v7-m/nofp\libg.a(lib_a-exit.o)
                              d:/environment/gcc-arm-none-eabi/bin/../lib/gcc/arm-none-eabi/9.2.1/../../../../arm-none-eabi/lib/thumb/v7-m/nofp/crt0.o (exit)
d:/environment/gcc-arm-none-eabi/bin/../lib/gcc/arm-none-eabi/9.2.1/../../../../arm-none-eabi/lib/thumb/v7-m/nofp\libg.a(lib_a-impure.o)
                              d:/environment/gcc-arm-none-eabi/bin/../lib/gcc/arm-none-eabi/9.2.1/../../../../arm-none-eabi/lib/thumb/v7-m/nofp\libg.a(lib_a-exit.o) (_global_impure_ptr)
d:/environment/gcc-arm-none-eabi/bin/../lib/gcc/arm-none-eabi/9.2.1/../../../../arm-none-eabi/lib/thumb/v7-m/nofp\libg.a(lib_a-init.o)
                              d:/environment/gcc-arm-none-eabi/bin/../lib/gcc/arm-none-eabi/9.2.1/../../../../arm-none-eabi/lib/thumb/v7-m/nofp/crt0.o (__libc_init_array)
d:/environment/gcc-arm-none-eabi/bin/../lib/gcc/arm-none-eabi/9.2.1/../../../../arm-none-eabi/lib/thumb/v7-m/nofp\libg.a(lib_a-memcmp.o)
                              CMakeFiles/13_demo_OLED_FLOAT.elf.dir/Drivers/DMP/inv_mpu.c.obj (memcmp)
d:/environment/gcc-arm-none-eabi/bin/../lib/gcc/arm-none-eabi/9.2.1/../../../../arm-none-eabi/lib/thumb/v7-m/nofp\libg.a(lib_a-memset.o)
                              d:/environment/gcc-arm-none-eabi/bin/../lib/gcc/arm-none-eabi/9.2.1/../../../../arm-none-eabi/lib/thumb/v7-m/nofp/crt0.o (memset)
d:/environment/gcc-arm-none-eabi/bin/../lib/gcc/arm-none-eabi/9.2.1/../../../../arm-none-eabi/lib/thumb/v7-m/nofp\libg.a(lib_a-printf.o)
                              CMakeFiles/13_demo_OLED_FLOAT.elf.dir/Core/Src/main.c.obj (printf)
d:/environment/gcc-arm-none-eabi/bin/../lib/gcc/arm-none-eabi/9.2.1/../../../../arm-none-eabi/lib/thumb/v7-m/nofp\libg.a(lib_a-puts.o)
                              CMakeFiles/13_demo_OLED_FLOAT.elf.dir/Core/Src/main.c.obj (puts)
d:/environment/gcc-arm-none-eabi/bin/../lib/gcc/arm-none-eabi/9.2.1/../../../../arm-none-eabi/lib/thumb/v7-m/nofp\libg.a(lib_a-rand.o)
                              CMakeFiles/13_demo_OLED_FLOAT.elf.dir/Core/Src/oled12864.c.obj (rand)
d:/environment/gcc-arm-none-eabi/bin/../lib/gcc/arm-none-eabi/9.2.1/../../../../arm-none-eabi/lib/thumb/v7-m/nofp\libg.a(lib_a-strlen-stub.o)
                              d:/environment/gcc-arm-none-eabi/bin/../lib/gcc/arm-none-eabi/9.2.1/../../../../arm-none-eabi/lib/thumb/v7-m/nofp\libg.a(lib_a-puts.o) (strlen)
d:/environment/gcc-arm-none-eabi/bin/../lib/gcc/arm-none-eabi/9.2.1/../../../../arm-none-eabi/lib/thumb/v7-m/nofp\libg.a(lib_a-vfprintf.o)
                              d:/environment/gcc-arm-none-eabi/bin/../lib/gcc/arm-none-eabi/9.2.1/../../../../arm-none-eabi/lib/thumb/v7-m/nofp\libg.a(lib_a-printf.o) (_vfprintf_r)
d:/environment/gcc-arm-none-eabi/bin/../lib/gcc/arm-none-eabi/9.2.1/../../../../arm-none-eabi/lib/thumb/v7-m/nofp\libg.a(lib_a-wsetup.o)
                              d:/environment/gcc-arm-none-eabi/bin/../lib/gcc/arm-none-eabi/9.2.1/../../../../arm-none-eabi/lib/thumb/v7-m/nofp\libg.a(lib_a-vfprintf.o) (__swsetup_r)
d:/environment/gcc-arm-none-eabi/bin/../lib/gcc/arm-none-eabi/9.2.1/../../../../arm-none-eabi/lib/thumb/v7-m/nofp\libg.a(lib_a-__call_atexit.o)
                              d:/environment/gcc-arm-none-eabi/bin/../lib/gcc/arm-none-eabi/9.2.1/../../../../arm-none-eabi/lib/thumb/v7-m/nofp\libg.a(lib_a-exit.o) (__call_exitprocs)
d:/environment/gcc-arm-none-eabi/bin/../lib/gcc/arm-none-eabi/9.2.1/../../../../arm-none-eabi/lib/thumb/v7-m/nofp\libg.a(lib_a-atexit.o)
                              d:/environment/gcc-arm-none-eabi/bin/../lib/gcc/arm-none-eabi/9.2.1/../../../../arm-none-eabi/lib/thumb/v7-m/nofp\libg.a(lib_a-__call_atexit.o) (atexit)
d:/environment/gcc-arm-none-eabi/bin/../lib/gcc/arm-none-eabi/9.2.1/../../../../arm-none-eabi/lib/thumb/v7-m/nofp\libg.a(lib_a-dtoa.o)
                              d:/environment/gcc-arm-none-eabi/bin/../lib/gcc/arm-none-eabi/9.2.1/../../../../arm-none-eabi/lib/thumb/v7-m/nofp\libg.a(lib_a-vfprintf.o) (_dtoa_r)
d:/environment/gcc-arm-none-eabi/bin/../lib/gcc/arm-none-eabi/9.2.1/../../../../arm-none-eabi/lib/thumb/v7-m/nofp\libg.a(lib_a-fflush.o)
                              d:/environment/gcc-arm-none-eabi/bin/../lib/gcc/arm-none-eabi/9.2.1/../../../../arm-none-eabi/lib/thumb/v7-m/nofp\libg.a(lib_a-vfprintf.o) (_fflush_r)
d:/environment/gcc-arm-none-eabi/bin/../lib/gcc/arm-none-eabi/9.2.1/../../../../arm-none-eabi/lib/thumb/v7-m/nofp\libg.a(lib_a-findfp.o)
                              d:/environment/gcc-arm-none-eabi/bin/../lib/gcc/arm-none-eabi/9.2.1/../../../../arm-none-eabi/lib/thumb/v7-m/nofp\libg.a(lib_a-puts.o) (__sinit)
d:/environment/gcc-arm-none-eabi/bin/../lib/gcc/arm-none-eabi/9.2.1/../../../../arm-none-eabi/lib/thumb/v7-m/nofp\libg.a(lib_a-fini.o)
                              d:/environment/gcc-arm-none-eabi/bin/../lib/gcc/arm-none-eabi/9.2.1/../../../../arm-none-eabi/lib/thumb/v7-m/nofp\libg.a(lib_a-__call_atexit.o) (__libc_fini_array)
d:/environment/gcc-arm-none-eabi/bin/../lib/gcc/arm-none-eabi/9.2.1/../../../../arm-none-eabi/lib/thumb/v7-m/nofp\libg.a(lib_a-freer.o)
                              d:/environment/gcc-arm-none-eabi/bin/../lib/gcc/arm-none-eabi/9.2.1/../../../../arm-none-eabi/lib/thumb/v7-m/nofp\libg.a(lib_a-vfprintf.o) (_free_r)
d:/environment/gcc-arm-none-eabi/bin/../lib/gcc/arm-none-eabi/9.2.1/../../../../arm-none-eabi/lib/thumb/v7-m/nofp\libg.a(lib_a-fvwrite.o)
                              d:/environment/gcc-arm-none-eabi/bin/../lib/gcc/arm-none-eabi/9.2.1/../../../../arm-none-eabi/lib/thumb/v7-m/nofp\libg.a(lib_a-puts.o) (__sfvwrite_r)
d:/environment/gcc-arm-none-eabi/bin/../lib/gcc/arm-none-eabi/9.2.1/../../../../arm-none-eabi/lib/thumb/v7-m/nofp\libg.a(lib_a-fwalk.o)
                              d:/environment/gcc-arm-none-eabi/bin/../lib/gcc/arm-none-eabi/9.2.1/../../../../arm-none-eabi/lib/thumb/v7-m/nofp\libg.a(lib_a-findfp.o) (_fwalk)
d:/environment/gcc-arm-none-eabi/bin/../lib/gcc/arm-none-eabi/9.2.1/../../../../arm-none-eabi/lib/thumb/v7-m/nofp\libg.a(lib_a-localeconv.o)
                              d:/environment/gcc-arm-none-eabi/bin/../lib/gcc/arm-none-eabi/9.2.1/../../../../arm-none-eabi/lib/thumb/v7-m/nofp\libg.a(lib_a-vfprintf.o) (_localeconv_r)
d:/environment/gcc-arm-none-eabi/bin/../lib/gcc/arm-none-eabi/9.2.1/../../../../arm-none-eabi/lib/thumb/v7-m/nofp\libg.a(lib_a-lock.o)
                              d:/environment/gcc-arm-none-eabi/bin/../lib/gcc/arm-none-eabi/9.2.1/../../../../arm-none-eabi/lib/thumb/v7-m/nofp\libg.a(lib_a-vfprintf.o) (__retarget_lock_init_recursive)
d:/environment/gcc-arm-none-eabi/bin/../lib/gcc/arm-none-eabi/9.2.1/../../../../arm-none-eabi/lib/thumb/v7-m/nofp\libg.a(lib_a-makebuf.o)
                              d:/environment/gcc-arm-none-eabi/bin/../lib/gcc/arm-none-eabi/9.2.1/../../../../arm-none-eabi/lib/thumb/v7-m/nofp\libg.a(lib_a-wsetup.o) (__smakebuf_r)
d:/environment/gcc-arm-none-eabi/bin/../lib/gcc/arm-none-eabi/9.2.1/../../../../arm-none-eabi/lib/thumb/v7-m/nofp\libg.a(lib_a-mallocr.o)
                              d:/environment/gcc-arm-none-eabi/bin/../lib/gcc/arm-none-eabi/9.2.1/../../../../arm-none-eabi/lib/thumb/v7-m/nofp\libg.a(lib_a-vfprintf.o) (_malloc_r)
d:/environment/gcc-arm-none-eabi/bin/../lib/gcc/arm-none-eabi/9.2.1/../../../../arm-none-eabi/lib/thumb/v7-m/nofp\libg.a(lib_a-memchr-stub.o)
                              d:/environment/gcc-arm-none-eabi/bin/../lib/gcc/arm-none-eabi/9.2.1/../../../../arm-none-eabi/lib/thumb/v7-m/nofp\libg.a(lib_a-vfprintf.o) (memchr)
d:/environment/gcc-arm-none-eabi/bin/../lib/gcc/arm-none-eabi/9.2.1/../../../../arm-none-eabi/lib/thumb/v7-m/nofp\libg.a(lib_a-memcpy.o)
                              d:/environment/gcc-arm-none-eabi/bin/../lib/gcc/arm-none-eabi/9.2.1/../../../../arm-none-eabi/lib/thumb/v7-m/nofp\libg.a(lib_a-dtoa.o) (memcpy)
d:/environment/gcc-arm-none-eabi/bin/../lib/gcc/arm-none-eabi/9.2.1/../../../../arm-none-eabi/lib/thumb/v7-m/nofp\libg.a(lib_a-memmove.o)
                              d:/environment/gcc-arm-none-eabi/bin/../lib/gcc/arm-none-eabi/9.2.1/../../../../arm-none-eabi/lib/thumb/v7-m/nofp\libg.a(lib_a-fvwrite.o) (memmove)
d:/environment/gcc-arm-none-eabi/bin/../lib/gcc/arm-none-eabi/9.2.1/../../../../arm-none-eabi/lib/thumb/v7-m/nofp\libg.a(lib_a-mlock.o)
                              d:/environment/gcc-arm-none-eabi/bin/../lib/gcc/arm-none-eabi/9.2.1/../../../../arm-none-eabi/lib/thumb/v7-m/nofp\libg.a(lib_a-freer.o) (__malloc_lock)
d:/environment/gcc-arm-none-eabi/bin/../lib/gcc/arm-none-eabi/9.2.1/../../../../arm-none-eabi/lib/thumb/v7-m/nofp\libg.a(lib_a-mprec.o)
                              d:/environment/gcc-arm-none-eabi/bin/../lib/gcc/arm-none-eabi/9.2.1/../../../../arm-none-eabi/lib/thumb/v7-m/nofp\libg.a(lib_a-dtoa.o) (_Balloc)
d:/environment/gcc-arm-none-eabi/bin/../lib/gcc/arm-none-eabi/9.2.1/../../../../arm-none-eabi/lib/thumb/v7-m/nofp\libg.a(lib_a-reallocr.o)
                              d:/environment/gcc-arm-none-eabi/bin/../lib/gcc/arm-none-eabi/9.2.1/../../../../arm-none-eabi/lib/thumb/v7-m/nofp\libg.a(lib_a-fvwrite.o) (_realloc_r)
d:/environment/gcc-arm-none-eabi/bin/../lib/gcc/arm-none-eabi/9.2.1/../../../../arm-none-eabi/lib/thumb/v7-m/nofp\libg.a(lib_a-s_frexp.o)
                              d:/environment/gcc-arm-none-eabi/bin/../lib/gcc/arm-none-eabi/9.2.1/../../../../arm-none-eabi/lib/thumb/v7-m/nofp\libg.a(lib_a-vfprintf.o) (frexp)
d:/environment/gcc-arm-none-eabi/bin/../lib/gcc/arm-none-eabi/9.2.1/../../../../arm-none-eabi/lib/thumb/v7-m/nofp\libg.a(lib_a-sbrkr.o)
                              d:/environment/gcc-arm-none-eabi/bin/../lib/gcc/arm-none-eabi/9.2.1/../../../../arm-none-eabi/lib/thumb/v7-m/nofp\libg.a(lib_a-freer.o) (_sbrk_r)
d:/environment/gcc-arm-none-eabi/bin/../lib/gcc/arm-none-eabi/9.2.1/../../../../arm-none-eabi/lib/thumb/v7-m/nofp\libg.a(lib_a-stdio.o)
                              d:/environment/gcc-arm-none-eabi/bin/../lib/gcc/arm-none-eabi/9.2.1/../../../../arm-none-eabi/lib/thumb/v7-m/nofp\libg.a(lib_a-findfp.o) (__sread)
d:/environment/gcc-arm-none-eabi/bin/../lib/gcc/arm-none-eabi/9.2.1/../../../../arm-none-eabi/lib/thumb/v7-m/nofp\libg.a(lib_a-strncpy.o)
                              d:/environment/gcc-arm-none-eabi/bin/../lib/gcc/arm-none-eabi/9.2.1/../../../../arm-none-eabi/lib/thumb/v7-m/nofp\libg.a(lib_a-vfprintf.o) (strncpy)
d:/environment/gcc-arm-none-eabi/bin/../lib/gcc/arm-none-eabi/9.2.1/../../../../arm-none-eabi/lib/thumb/v7-m/nofp\libg.a(lib_a-vfiprintf.o)
                              d:/environment/gcc-arm-none-eabi/bin/../lib/gcc/arm-none-eabi/9.2.1/../../../../arm-none-eabi/lib/thumb/v7-m/nofp\libg.a(lib_a-vfprintf.o) (__sprint_r)
d:/environment/gcc-arm-none-eabi/bin/../lib/gcc/arm-none-eabi/9.2.1/../../../../arm-none-eabi/lib/thumb/v7-m/nofp\libg.a(lib_a-writer.o)
                              d:/environment/gcc-arm-none-eabi/bin/../lib/gcc/arm-none-eabi/9.2.1/../../../../arm-none-eabi/lib/thumb/v7-m/nofp\libg.a(lib_a-stdio.o) (_write_r)
d:/environment/gcc-arm-none-eabi/bin/../lib/gcc/arm-none-eabi/9.2.1/../../../../arm-none-eabi/lib/thumb/v7-m/nofp\libg.a(lib_a-__atexit.o)
                              d:/environment/gcc-arm-none-eabi/bin/../lib/gcc/arm-none-eabi/9.2.1/../../../../arm-none-eabi/lib/thumb/v7-m/nofp\libg.a(lib_a-atexit.o) (__register_exitproc)
d:/environment/gcc-arm-none-eabi/bin/../lib/gcc/arm-none-eabi/9.2.1/../../../../arm-none-eabi/lib/thumb/v7-m/nofp\libg.a(lib_a-callocr.o)
                              d:/environment/gcc-arm-none-eabi/bin/../lib/gcc/arm-none-eabi/9.2.1/../../../../arm-none-eabi/lib/thumb/v7-m/nofp\libg.a(lib_a-mprec.o) (_calloc_r)
d:/environment/gcc-arm-none-eabi/bin/../lib/gcc/arm-none-eabi/9.2.1/../../../../arm-none-eabi/lib/thumb/v7-m/nofp\libg.a(lib_a-closer.o)
                              d:/environment/gcc-arm-none-eabi/bin/../lib/gcc/arm-none-eabi/9.2.1/../../../../arm-none-eabi/lib/thumb/v7-m/nofp\libg.a(lib_a-stdio.o) (_close_r)
d:/environment/gcc-arm-none-eabi/bin/../lib/gcc/arm-none-eabi/9.2.1/../../../../arm-none-eabi/lib/thumb/v7-m/nofp\libg.a(lib_a-fclose.o)
                              d:/environment/gcc-arm-none-eabi/bin/../lib/gcc/arm-none-eabi/9.2.1/../../../../arm-none-eabi/lib/thumb/v7-m/nofp\libg.a(lib_a-findfp.o) (_fclose_r)
d:/environment/gcc-arm-none-eabi/bin/../lib/gcc/arm-none-eabi/9.2.1/../../../../arm-none-eabi/lib/thumb/v7-m/nofp\libg.a(lib_a-fputwc.o)
                              d:/environment/gcc-arm-none-eabi/bin/../lib/gcc/arm-none-eabi/9.2.1/../../../../arm-none-eabi/lib/thumb/v7-m/nofp\libg.a(lib_a-vfiprintf.o) (_fputwc_r)
d:/environment/gcc-arm-none-eabi/bin/../lib/gcc/arm-none-eabi/9.2.1/../../../../arm-none-eabi/lib/thumb/v7-m/nofp\libg.a(lib_a-fstatr.o)
                              d:/environment/gcc-arm-none-eabi/bin/../lib/gcc/arm-none-eabi/9.2.1/../../../../arm-none-eabi/lib/thumb/v7-m/nofp\libg.a(lib_a-makebuf.o) (_fstat_r)
d:/environment/gcc-arm-none-eabi/bin/../lib/gcc/arm-none-eabi/9.2.1/../../../../arm-none-eabi/lib/thumb/v7-m/nofp\libg.a(lib_a-isattyr.o)
                              d:/environment/gcc-arm-none-eabi/bin/../lib/gcc/arm-none-eabi/9.2.1/../../../../arm-none-eabi/lib/thumb/v7-m/nofp\libg.a(lib_a-makebuf.o) (_isatty_r)
d:/environment/gcc-arm-none-eabi/bin/../lib/gcc/arm-none-eabi/9.2.1/../../../../arm-none-eabi/lib/thumb/v7-m/nofp\libg.a(lib_a-locale.o)
                              d:/environment/gcc-arm-none-eabi/bin/../lib/gcc/arm-none-eabi/9.2.1/../../../../arm-none-eabi/lib/thumb/v7-m/nofp\libg.a(lib_a-fputwc.o) (__locale_mb_cur_max)
d:/environment/gcc-arm-none-eabi/bin/../lib/gcc/arm-none-eabi/9.2.1/../../../../arm-none-eabi/lib/thumb/v7-m/nofp\libg.a(lib_a-lseekr.o)
                              d:/environment/gcc-arm-none-eabi/bin/../lib/gcc/arm-none-eabi/9.2.1/../../../../arm-none-eabi/lib/thumb/v7-m/nofp\libg.a(lib_a-stdio.o) (_lseek_r)
d:/environment/gcc-arm-none-eabi/bin/../lib/gcc/arm-none-eabi/9.2.1/../../../../arm-none-eabi/lib/thumb/v7-m/nofp\libg.a(lib_a-mbtowc_r.o)
                              d:/environment/gcc-arm-none-eabi/bin/../lib/gcc/arm-none-eabi/9.2.1/../../../../arm-none-eabi/lib/thumb/v7-m/nofp\libg.a(lib_a-locale.o) (__ascii_mbtowc)
d:/environment/gcc-arm-none-eabi/bin/../lib/gcc/arm-none-eabi/9.2.1/../../../../arm-none-eabi/lib/thumb/v7-m/nofp\libg.a(lib_a-readr.o)
                              d:/environment/gcc-arm-none-eabi/bin/../lib/gcc/arm-none-eabi/9.2.1/../../../../arm-none-eabi/lib/thumb/v7-m/nofp\libg.a(lib_a-stdio.o) (_read_r)
d:/environment/gcc-arm-none-eabi/bin/../lib/gcc/arm-none-eabi/9.2.1/../../../../arm-none-eabi/lib/thumb/v7-m/nofp\libg.a(lib_a-reent.o)
                              d:/environment/gcc-arm-none-eabi/bin/../lib/gcc/arm-none-eabi/9.2.1/../../../../arm-none-eabi/lib/thumb/v7-m/nofp\libg.a(lib_a-sbrkr.o) (errno)
d:/environment/gcc-arm-none-eabi/bin/../lib/gcc/arm-none-eabi/9.2.1/../../../../arm-none-eabi/lib/thumb/v7-m/nofp\libg.a(lib_a-strcmp.o)
                              d:/environment/gcc-arm-none-eabi/bin/../lib/gcc/arm-none-eabi/9.2.1/../../../../arm-none-eabi/lib/thumb/v7-m/nofp\libg.a(lib_a-locale.o) (strcmp)
d:/environment/gcc-arm-none-eabi/bin/../lib/gcc/arm-none-eabi/9.2.1/../../../../arm-none-eabi/lib/thumb/v7-m/nofp\libg.a(lib_a-wbuf.o)
                              d:/environment/gcc-arm-none-eabi/bin/../lib/gcc/arm-none-eabi/9.2.1/../../../../arm-none-eabi/lib/thumb/v7-m/nofp\libg.a(lib_a-fputwc.o) (__swbuf_r)
d:/environment/gcc-arm-none-eabi/bin/../lib/gcc/arm-none-eabi/9.2.1/../../../../arm-none-eabi/lib/thumb/v7-m/nofp\libg.a(lib_a-wcrtomb.o)
                              d:/environment/gcc-arm-none-eabi/bin/../lib/gcc/arm-none-eabi/9.2.1/../../../../arm-none-eabi/lib/thumb/v7-m/nofp\libg.a(lib_a-fputwc.o) (_wcrtomb_r)
d:/environment/gcc-arm-none-eabi/bin/../lib/gcc/arm-none-eabi/9.2.1/../../../../arm-none-eabi/lib/thumb/v7-m/nofp\libg.a(lib_a-wctomb_r.o)
                              d:/environment/gcc-arm-none-eabi/bin/../lib/gcc/arm-none-eabi/9.2.1/../../../../arm-none-eabi/lib/thumb/v7-m/nofp\libg.a(lib_a-locale.o) (__ascii_wctomb)
d:/environment/gcc-arm-none-eabi/bin/../lib/gcc/arm-none-eabi/9.2.1/../../../../arm-none-eabi/lib/thumb/v7-m/nofp\libg.a(lib_a-ctype_.o)
                              d:/environment/gcc-arm-none-eabi/bin/../lib/gcc/arm-none-eabi/9.2.1/../../../../arm-none-eabi/lib/thumb/v7-m/nofp\libg.a(lib_a-locale.o) (_ctype_)
d:/environment/gcc-arm-none-eabi/bin/../lib/gcc/arm-none-eabi/9.2.1/thumb/v7-m/nofp\libgcc.a(_arm_muldivdf3.o)
                              d:/environment/gcc-arm-none-eabi/bin/../lib/gcc/arm-none-eabi/9.2.1/../../../../arm-none-eabi/lib/thumb/v7-m/nofp\libg.a(lib_a-dtoa.o) (__aeabi_ddiv)
d:/environment/gcc-arm-none-eabi/bin/../lib/gcc/arm-none-eabi/9.2.1/thumb/v7-m/nofp\libgcc.a(_arm_cmpdf2.o)
                              d:/environment/gcc-arm-none-eabi/bin/../lib/gcc/arm-none-eabi/9.2.1/../../../../arm-none-eabi/lib/thumb/v7-m/nofp\libg.a(lib_a-vfprintf.o) (__aeabi_dcmpeq)
d:/environment/gcc-arm-none-eabi/bin/../lib/gcc/arm-none-eabi/9.2.1/thumb/v7-m/nofp\libgcc.a(_arm_unorddf2.o)
                              d:/environment/gcc-arm-none-eabi/bin/../lib/gcc/arm-none-eabi/9.2.1/../../../../arm-none-eabi/lib/thumb/v7-m/nofp\libg.a(lib_a-vfprintf.o) (__aeabi_dcmpun)
d:/environment/gcc-arm-none-eabi/bin/../lib/gcc/arm-none-eabi/9.2.1/thumb/v7-m/nofp\libgcc.a(_arm_fixdfsi.o)
                              d:/environment/gcc-arm-none-eabi/bin/../lib/gcc/arm-none-eabi/9.2.1/../../../../arm-none-eabi/lib/thumb/v7-m/nofp\libg.a(lib_a-vfprintf.o) (__aeabi_d2iz)
d:/environment/gcc-arm-none-eabi/bin/../lib/gcc/arm-none-eabi/9.2.1/thumb/v7-m/nofp\libgcc.a(_aeabi_uldivmod.o)
                              d:/environment/gcc-arm-none-eabi/bin/../lib/gcc/arm-none-eabi/9.2.1/../../../../arm-none-eabi/lib/thumb/v7-m/nofp\libg.a(lib_a-vfprintf.o) (__aeabi_uldivmod)
d:/environment/gcc-arm-none-eabi/bin/../lib/gcc/arm-none-eabi/9.2.1/../../../../arm-none-eabi/lib/thumb/v7-m/nofp\libm.a(lib_a-w_asin.o)
                              CMakeFiles/13_demo_OLED_FLOAT.elf.dir/Drivers/DMP/DMP_test.c.obj (asin)
d:/environment/gcc-arm-none-eabi/bin/../lib/gcc/arm-none-eabi/9.2.1/../../../../arm-none-eabi/lib/thumb/v7-m/nofp\libm.a(lib_a-w_atan2.o)
                              CMakeFiles/13_demo_OLED_FLOAT.elf.dir/Drivers/DMP/DMP_test.c.obj (atan2)
d:/environment/gcc-arm-none-eabi/bin/../lib/gcc/arm-none-eabi/9.2.1/../../../../arm-none-eabi/lib/thumb/v7-m/nofp\libm.a(lib_a-e_asin.o)
                              d:/environment/gcc-arm-none-eabi/bin/../lib/gcc/arm-none-eabi/9.2.1/../../../../arm-none-eabi/lib/thumb/v7-m/nofp\libm.a(lib_a-w_asin.o) (__ieee754_asin)
d:/environment/gcc-arm-none-eabi/bin/../lib/gcc/arm-none-eabi/9.2.1/../../../../arm-none-eabi/lib/thumb/v7-m/nofp\libm.a(lib_a-e_atan2.o)
                              d:/environment/gcc-arm-none-eabi/bin/../lib/gcc/arm-none-eabi/9.2.1/../../../../arm-none-eabi/lib/thumb/v7-m/nofp\libm.a(lib_a-w_atan2.o) (__ieee754_atan2)
d:/environment/gcc-arm-none-eabi/bin/../lib/gcc/arm-none-eabi/9.2.1/../../../../arm-none-eabi/lib/thumb/v7-m/nofp\libm.a(lib_a-e_sqrt.o)
                              d:/environment/gcc-arm-none-eabi/bin/../lib/gcc/arm-none-eabi/9.2.1/../../../../arm-none-eabi/lib/thumb/v7-m/nofp\libm.a(lib_a-e_asin.o) (__ieee754_sqrt)
d:/environment/gcc-arm-none-eabi/bin/../lib/gcc/arm-none-eabi/9.2.1/../../../../arm-none-eabi/lib/thumb/v7-m/nofp\libm.a(lib_a-s_atan.o)
                              d:/environment/gcc-arm-none-eabi/bin/../lib/gcc/arm-none-eabi/9.2.1/../../../../arm-none-eabi/lib/thumb/v7-m/nofp\libm.a(lib_a-e_atan2.o) (atan)
d:/environment/gcc-arm-none-eabi/bin/../lib/gcc/arm-none-eabi/9.2.1/../../../../arm-none-eabi/lib/thumb/v7-m/nofp\libm.a(lib_a-s_fabs.o)
                              d:/environment/gcc-arm-none-eabi/bin/../lib/gcc/arm-none-eabi/9.2.1/../../../../arm-none-eabi/lib/thumb/v7-m/nofp\libm.a(lib_a-w_asin.o) (fabs)
d:/environment/gcc-arm-none-eabi/bin/../lib/gcc/arm-none-eabi/9.2.1/../../../../arm-none-eabi/lib/thumb/v7-m/nofp\libm.a(lib_a-s_lib_ver.o)
                              d:/environment/gcc-arm-none-eabi/bin/../lib/gcc/arm-none-eabi/9.2.1/../../../../arm-none-eabi/lib/thumb/v7-m/nofp\libm.a(lib_a-w_asin.o) (__fdlib_version)
d:/environment/gcc-arm-none-eabi/bin/../lib/gcc/arm-none-eabi/9.2.1/../../../../arm-none-eabi/lib/thumb/v7-m/nofp\libm.a(lib_a-s_matherr.o)
                              d:/environment/gcc-arm-none-eabi/bin/../lib/gcc/arm-none-eabi/9.2.1/../../../../arm-none-eabi/lib/thumb/v7-m/nofp\libm.a(lib_a-w_asin.o) (matherr)
d:/environment/gcc-arm-none-eabi/bin/../lib/gcc/arm-none-eabi/9.2.1/../../../../arm-none-eabi/lib/thumb/v7-m/nofp\libm.a(lib_a-s_nan.o)
                              d:/environment/gcc-arm-none-eabi/bin/../lib/gcc/arm-none-eabi/9.2.1/../../../../arm-none-eabi/lib/thumb/v7-m/nofp\libm.a(lib_a-w_asin.o) (nan)

Allocating common symbols
Common symbol       size              file

__lock___atexit_recursive_mutex
                    0x1               d:/environment/gcc-arm-none-eabi/bin/../lib/gcc/arm-none-eabi/9.2.1/../../../../arm-none-eabi/lib/thumb/v7-m/nofp\libg.a(lib_a-lock.o)
__lock___arc4random_mutex
                    0x1               d:/environment/gcc-arm-none-eabi/bin/../lib/gcc/arm-none-eabi/9.2.1/../../../../arm-none-eabi/lib/thumb/v7-m/nofp\libg.a(lib_a-lock.o)
errno               0x4               d:/environment/gcc-arm-none-eabi/bin/../lib/gcc/arm-none-eabi/9.2.1/../../../../arm-none-eabi/lib/thumb/v7-m/nofp\libg.a(lib_a-reent.o)
__lock___env_recursive_mutex
                    0x1               d:/environment/gcc-arm-none-eabi/bin/../lib/gcc/arm-none-eabi/9.2.1/../../../../arm-none-eabi/lib/thumb/v7-m/nofp\libg.a(lib_a-lock.o)
__lock___sinit_recursive_mutex
                    0x1               d:/environment/gcc-arm-none-eabi/bin/../lib/gcc/arm-none-eabi/9.2.1/../../../../arm-none-eabi/lib/thumb/v7-m/nofp\libg.a(lib_a-lock.o)
__lock___malloc_recursive_mutex
                    0x1               d:/environment/gcc-arm-none-eabi/bin/../lib/gcc/arm-none-eabi/9.2.1/../../../../arm-none-eabi/lib/thumb/v7-m/nofp\libg.a(lib_a-lock.o)
__lock___at_quick_exit_mutex
                    0x1               d:/environment/gcc-arm-none-eabi/bin/../lib/gcc/arm-none-eabi/9.2.1/../../../../arm-none-eabi/lib/thumb/v7-m/nofp\libg.a(lib_a-lock.o)
__lock___dd_hash_mutex
                    0x1               d:/environment/gcc-arm-none-eabi/bin/../lib/gcc/arm-none-eabi/9.2.1/../../../../arm-none-eabi/lib/thumb/v7-m/nofp\libg.a(lib_a-lock.o)
__lock___tz_mutex   0x1               d:/environment/gcc-arm-none-eabi/bin/../lib/gcc/arm-none-eabi/9.2.1/../../../../arm-none-eabi/lib/thumb/v7-m/nofp\libg.a(lib_a-lock.o)
__lock___sfp_recursive_mutex
                    0x1               d:/environment/gcc-arm-none-eabi/bin/../lib/gcc/arm-none-eabi/9.2.1/../../../../arm-none-eabi/lib/thumb/v7-m/nofp\libg.a(lib_a-lock.o)

Discarded input sections

 .text          0x00000000        0x0 d:/environment/gcc-arm-none-eabi/bin/../lib/gcc/arm-none-eabi/9.2.1/thumb/v7-m/nofp/crti.o
 .data          0x00000000        0x0 d:/environment/gcc-arm-none-eabi/bin/../lib/gcc/arm-none-eabi/9.2.1/thumb/v7-m/nofp/crti.o
 .bss           0x00000000        0x0 d:/environment/gcc-arm-none-eabi/bin/../lib/gcc/arm-none-eabi/9.2.1/thumb/v7-m/nofp/crti.o
 .data          0x00000000        0x4 d:/environment/gcc-arm-none-eabi/bin/../lib/gcc/arm-none-eabi/9.2.1/thumb/v7-m/nofp/crtbegin.o
 .text          0x00000000       0x74 d:/environment/gcc-arm-none-eabi/bin/../lib/gcc/arm-none-eabi/9.2.1/../../../../arm-none-eabi/lib/thumb/v7-m/nofp/crt0.o
 .data          0x00000000        0x0 d:/environment/gcc-arm-none-eabi/bin/../lib/gcc/arm-none-eabi/9.2.1/../../../../arm-none-eabi/lib/thumb/v7-m/nofp/crt0.o
 .bss           0x00000000        0x0 d:/environment/gcc-arm-none-eabi/bin/../lib/gcc/arm-none-eabi/9.2.1/../../../../arm-none-eabi/lib/thumb/v7-m/nofp/crt0.o
 .ARM.extab     0x00000000        0x0 d:/environment/gcc-arm-none-eabi/bin/../lib/gcc/arm-none-eabi/9.2.1/../../../../arm-none-eabi/lib/thumb/v7-m/nofp/crt0.o
 .ARM.exidx     0x00000000        0x8 d:/environment/gcc-arm-none-eabi/bin/../lib/gcc/arm-none-eabi/9.2.1/../../../../arm-none-eabi/lib/thumb/v7-m/nofp/crt0.o
 .ARM.attributes
                0x00000000       0x1b d:/environment/gcc-arm-none-eabi/bin/../lib/gcc/arm-none-eabi/9.2.1/../../../../arm-none-eabi/lib/thumb/v7-m/nofp/crt0.o
 .text          0x00000000        0x0 CMakeFiles/13_demo_OLED_FLOAT.elf.dir/Core/Src/gpio.c.obj
 .data          0x00000000        0x0 CMakeFiles/13_demo_OLED_FLOAT.elf.dir/Core/Src/gpio.c.obj
 .bss           0x00000000        0x0 CMakeFiles/13_demo_OLED_FLOAT.elf.dir/Core/Src/gpio.c.obj
 .text          0x00000000        0x0 CMakeFiles/13_demo_OLED_FLOAT.elf.dir/Core/Src/i2c.c.obj
 .data          0x00000000        0x0 CMakeFiles/13_demo_OLED_FLOAT.elf.dir/Core/Src/i2c.c.obj
 .bss           0x00000000        0x0 CMakeFiles/13_demo_OLED_FLOAT.elf.dir/Core/Src/i2c.c.obj
 .text.HAL_I2C_MspDeInit
                0x00000000       0x38 CMakeFiles/13_demo_OLED_FLOAT.elf.dir/Core/Src/i2c.c.obj
 .text          0x00000000        0x0 CMakeFiles/13_demo_OLED_FLOAT.elf.dir/Core/Src/main.c.obj
 .data          0x00000000        0x0 CMakeFiles/13_demo_OLED_FLOAT.elf.dir/Core/Src/main.c.obj
 .bss           0x00000000        0x0 CMakeFiles/13_demo_OLED_FLOAT.elf.dir/Core/Src/main.c.obj
 .text          0x00000000        0x0 CMakeFiles/13_demo_OLED_FLOAT.elf.dir/Core/Src/mpu6050.c.obj
 .data          0x00000000        0x0 CMakeFiles/13_demo_OLED_FLOAT.elf.dir/Core/Src/mpu6050.c.obj
 .bss           0x00000000        0x0 CMakeFiles/13_demo_OLED_FLOAT.elf.dir/Core/Src/mpu6050.c.obj
 .text.IIC_Write
                0x00000000       0x2c CMakeFiles/13_demo_OLED_FLOAT.elf.dir/Core/Src/mpu6050.c.obj
 .rodata.MPU6050_Init.str1.4
                0x00000000        0x5 CMakeFiles/13_demo_OLED_FLOAT.elf.dir/Core/Src/mpu6050.c.obj
 .text.MPU6050_Init
                0x00000000       0x80 CMakeFiles/13_demo_OLED_FLOAT.elf.dir/Core/Src/mpu6050.c.obj
 .text.MPU6050_calibrate
                0x00000000      0x108 CMakeFiles/13_demo_OLED_FLOAT.elf.dir/Core/Src/mpu6050.c.obj
 .text          0x00000000        0x0 CMakeFiles/13_demo_OLED_FLOAT.elf.dir/Core/Src/oled12864.c.obj
 .data          0x00000000        0x0 CMakeFiles/13_demo_OLED_FLOAT.elf.dir/Core/Src/oled12864.c.obj
 .bss           0x00000000        0x0 CMakeFiles/13_demo_OLED_FLOAT.elf.dir/Core/Src/oled12864.c.obj
 .text.Delay_50ms
                0x00000000       0x14 CMakeFiles/13_demo_OLED_FLOAT.elf.dir/Core/Src/oled12864.c.obj
 .text.Delay_1ms
                0x00000000       0x16 CMakeFiles/13_demo_OLED_FLOAT.elf.dir/Core/Src/oled12864.c.obj
 .text.OLED_DisplayOn
                0x00000000       0x1c CMakeFiles/13_demo_OLED_FLOAT.elf.dir/Core/Src/oled12864.c.obj
 .text.OLED_DisplayOff
                0x00000000       0x1c CMakeFiles/13_demo_OLED_FLOAT.elf.dir/Core/Src/oled12864.c.obj
 .text.OLED_On  0x00000000       0x40 CMakeFiles/13_demo_OLED_FLOAT.elf.dir/Core/Src/oled12864.c.obj
 .text.OLED_ShowNum
                0x00000000       0x94 CMakeFiles/13_demo_OLED_FLOAT.elf.dir/Core/Src/oled12864.c.obj
 .text.OLED_DrawBMP
                0x00000000       0x48 CMakeFiles/13_demo_OLED_FLOAT.elf.dir/Core/Src/oled12864.c.obj
 .text.OLED_DrawBMPFast
                0x00000000       0x60 CMakeFiles/13_demo_OLED_FLOAT.elf.dir/Core/Src/oled12864.c.obj
 .text.oled_drawbmp_block_clear
                0x00000000       0x46 CMakeFiles/13_demo_OLED_FLOAT.elf.dir/Core/Src/oled12864.c.obj
 .text.OLED_DrawGround
                0x00000000       0x6c CMakeFiles/13_demo_OLED_FLOAT.elf.dir/Core/Src/oled12864.c.obj
 .text.OLED_DrawCloud
                0x00000000       0xb4 CMakeFiles/13_demo_OLED_FLOAT.elf.dir/Core/Src/oled12864.c.obj
 .text.OLED_DrawDino
                0x00000000       0x70 CMakeFiles/13_demo_OLED_FLOAT.elf.dir/Core/Src/oled12864.c.obj
 .text.OLED_DrawCactus
                0x00000000       0xb0 CMakeFiles/13_demo_OLED_FLOAT.elf.dir/Core/Src/oled12864.c.obj
 .text.OLED_DrawCactusRandom
                0x00000000       0xfc CMakeFiles/13_demo_OLED_FLOAT.elf.dir/Core/Src/oled12864.c.obj
 .rodata.OLED_DrawDinoJump.str1.4
                0x00000000        0xa CMakeFiles/13_demo_OLED_FLOAT.elf.dir/Core/Src/oled12864.c.obj
 .text.OLED_DrawDinoJump
                0x00000000      0x16c CMakeFiles/13_demo_OLED_FLOAT.elf.dir/Core/Src/oled12864.c.obj
 .rodata.OLED_DrawRestart.str1.4
                0x00000000        0xd CMakeFiles/13_demo_OLED_FLOAT.elf.dir/Core/Src/oled12864.c.obj
 .text.OLED_DrawRestart
                0x00000000       0x78 CMakeFiles/13_demo_OLED_FLOAT.elf.dir/Core/Src/oled12864.c.obj
 .text.OLED_DrawCover
                0x00000000       0x10 CMakeFiles/13_demo_OLED_FLOAT.elf.dir/Core/Src/oled12864.c.obj
 .text.OLED_DrawJump
                0x00000000       0xe0 CMakeFiles/13_demo_OLED_FLOAT.elf.dir/Core/Src/oled12864.c.obj
 .text.Clear_Draw_Container
                0x00000000       0x46 CMakeFiles/13_demo_OLED_FLOAT.elf.dir/Core/Src/oled12864.c.obj
 .text.OLED_Draw_Dino_By_X_Y
                0x00000000       0x68 CMakeFiles/13_demo_OLED_FLOAT.elf.dir/Core/Src/oled12864.c.obj
 .rodata        0x00000000       0x14 CMakeFiles/13_demo_OLED_FLOAT.elf.dir/Core/Src/oled12864.c.obj
 .bss.dino_dir.7756
                0x00000000        0x1 CMakeFiles/13_demo_OLED_FLOAT.elf.dir/Core/Src/oled12864.c.obj
 .bss.dir.7808  0x00000000        0x1 CMakeFiles/13_demo_OLED_FLOAT.elf.dir/Core/Src/oled12864.c.obj
 .bss.height.7745
                0x00000000        0x1 CMakeFiles/13_demo_OLED_FLOAT.elf.dir/Core/Src/oled12864.c.obj
 .bss.height.7807
                0x00000000        0x4 CMakeFiles/13_demo_OLED_FLOAT.elf.dir/Core/Src/oled12864.c.obj
 .bss.pos.7735  0x00000000        0x4 CMakeFiles/13_demo_OLED_FLOAT.elf.dir/Core/Src/oled12864.c.obj
 .data.CACTUS_1
                0x00000000       0x10 CMakeFiles/13_demo_OLED_FLOAT.elf.dir/Core/Src/oled12864.c.obj
 .data.CACTUS_2
                0x00000000       0x20 CMakeFiles/13_demo_OLED_FLOAT.elf.dir/Core/Src/oled12864.c.obj
 .data.CACTUS_3
                0x00000000       0x30 CMakeFiles/13_demo_OLED_FLOAT.elf.dir/Core/Src/oled12864.c.obj
 .data.CACTUS_4
                0x00000000       0x30 CMakeFiles/13_demo_OLED_FLOAT.elf.dir/Core/Src/oled12864.c.obj
 .data.CLOUD    0x00000000       0x18 CMakeFiles/13_demo_OLED_FLOAT.elf.dir/Core/Src/oled12864.c.obj
 .data.COVER    0x00000000      0x400 CMakeFiles/13_demo_OLED_FLOAT.elf.dir/Core/Src/oled12864.c.obj
 .data.DINO     0x00000000       0x40 CMakeFiles/13_demo_OLED_FLOAT.elf.dir/Core/Src/oled12864.c.obj
 .data.DINO_JUMP
                0x00000000      0x180 CMakeFiles/13_demo_OLED_FLOAT.elf.dir/Core/Src/oled12864.c.obj
 .data.GROUND   0x00000000      0x255 CMakeFiles/13_demo_OLED_FLOAT.elf.dir/Core/Src/oled12864.c.obj
 .data.RESTART  0x00000000       0x48 CMakeFiles/13_demo_OLED_FLOAT.elf.dir/Core/Src/oled12864.c.obj
 .data.pos.7744
                0x00000000        0x4 CMakeFiles/13_demo_OLED_FLOAT.elf.dir/Core/Src/oled12864.c.obj
 .data.pos.7770
                0x00000000        0x4 CMakeFiles/13_demo_OLED_FLOAT.elf.dir/Core/Src/oled12864.c.obj
 .data.pos.7788
                0x00000000        0x4 CMakeFiles/13_demo_OLED_FLOAT.elf.dir/Core/Src/oled12864.c.obj
 .data.speed_idx.7806
                0x00000000        0x1 CMakeFiles/13_demo_OLED_FLOAT.elf.dir/Core/Src/oled12864.c.obj
 .text          0x00000000        0x0 CMakeFiles/13_demo_OLED_FLOAT.elf.dir/Core/Src/stm32f1xx_hal_msp.c.obj
 .data          0x00000000        0x0 CMakeFiles/13_demo_OLED_FLOAT.elf.dir/Core/Src/stm32f1xx_hal_msp.c.obj
 .bss           0x00000000        0x0 CMakeFiles/13_demo_OLED_FLOAT.elf.dir/Core/Src/stm32f1xx_hal_msp.c.obj
 .text          0x00000000        0x0 CMakeFiles/13_demo_OLED_FLOAT.elf.dir/Core/Src/stm32f1xx_it.c.obj
 .data          0x00000000        0x0 CMakeFiles/13_demo_OLED_FLOAT.elf.dir/Core/Src/stm32f1xx_it.c.obj
 .bss           0x00000000        0x0 CMakeFiles/13_demo_OLED_FLOAT.elf.dir/Core/Src/stm32f1xx_it.c.obj
 .text          0x00000000        0x0 CMakeFiles/13_demo_OLED_FLOAT.elf.dir/Core/Src/syscalls.c.obj
 .data          0x00000000        0x0 CMakeFiles/13_demo_OLED_FLOAT.elf.dir/Core/Src/syscalls.c.obj
 .bss           0x00000000        0x0 CMakeFiles/13_demo_OLED_FLOAT.elf.dir/Core/Src/syscalls.c.obj
 .text.initialise_monitor_handles
                0x00000000        0x2 CMakeFiles/13_demo_OLED_FLOAT.elf.dir/Core/Src/syscalls.c.obj
 .text._getpid  0x00000000        0x4 CMakeFiles/13_demo_OLED_FLOAT.elf.dir/Core/Src/syscalls.c.obj
 .text._kill    0x00000000       0x10 CMakeFiles/13_demo_OLED_FLOAT.elf.dir/Core/Src/syscalls.c.obj
 .text._exit    0x00000000        0xc CMakeFiles/13_demo_OLED_FLOAT.elf.dir/Core/Src/syscalls.c.obj
 .text._open    0x00000000        0xa CMakeFiles/13_demo_OLED_FLOAT.elf.dir/Core/Src/syscalls.c.obj
 .text._wait    0x00000000       0x10 CMakeFiles/13_demo_OLED_FLOAT.elf.dir/Core/Src/syscalls.c.obj
 .text._unlink  0x00000000       0x10 CMakeFiles/13_demo_OLED_FLOAT.elf.dir/Core/Src/syscalls.c.obj
 .text._times   0x00000000        0x6 CMakeFiles/13_demo_OLED_FLOAT.elf.dir/Core/Src/syscalls.c.obj
 .text._stat    0x00000000        0xa CMakeFiles/13_demo_OLED_FLOAT.elf.dir/Core/Src/syscalls.c.obj
 .text._link    0x00000000       0x10 CMakeFiles/13_demo_OLED_FLOAT.elf.dir/Core/Src/syscalls.c.obj
 .text._fork    0x00000000       0x10 CMakeFiles/13_demo_OLED_FLOAT.elf.dir/Core/Src/syscalls.c.obj
 .text._execve  0x00000000       0x10 CMakeFiles/13_demo_OLED_FLOAT.elf.dir/Core/Src/syscalls.c.obj
 .bss.__env     0x00000000        0x4 CMakeFiles/13_demo_OLED_FLOAT.elf.dir/Core/Src/syscalls.c.obj
 .data.environ  0x00000000        0x4 CMakeFiles/13_demo_OLED_FLOAT.elf.dir/Core/Src/syscalls.c.obj
 .text          0x00000000        0x0 CMakeFiles/13_demo_OLED_FLOAT.elf.dir/Core/Src/system_stm32f1xx.c.obj
 .data          0x00000000        0x0 CMakeFiles/13_demo_OLED_FLOAT.elf.dir/Core/Src/system_stm32f1xx.c.obj
 .bss           0x00000000        0x0 CMakeFiles/13_demo_OLED_FLOAT.elf.dir/Core/Src/system_stm32f1xx.c.obj
 .text.SystemCoreClockUpdate
                0x00000000       0x94 CMakeFiles/13_demo_OLED_FLOAT.elf.dir/Core/Src/system_stm32f1xx.c.obj
 .text          0x00000000        0x0 CMakeFiles/13_demo_OLED_FLOAT.elf.dir/Core/Src/usart.c.obj
 .data          0x00000000        0x0 CMakeFiles/13_demo_OLED_FLOAT.elf.dir/Core/Src/usart.c.obj
 .bss           0x00000000        0x0 CMakeFiles/13_demo_OLED_FLOAT.elf.dir/Core/Src/usart.c.obj
 .text.HAL_UART_MspDeInit
                0x00000000       0x30 CMakeFiles/13_demo_OLED_FLOAT.elf.dir/Core/Src/usart.c.obj
 .text          0x00000000        0x0 CMakeFiles/13_demo_OLED_FLOAT.elf.dir/Drivers/DMP/DMP_test.c.obj
 .data          0x00000000        0x0 CMakeFiles/13_demo_OLED_FLOAT.elf.dir/Drivers/DMP/DMP_test.c.obj
 .bss           0x00000000        0x0 CMakeFiles/13_demo_OLED_FLOAT.elf.dir/Drivers/DMP/DMP_test.c.obj
 .text.mget_ms  0x00000000        0x2 CMakeFiles/13_demo_OLED_FLOAT.elf.dir/Drivers/DMP/DMP_test.c.obj
 .text          0x00000000        0x0 CMakeFiles/13_demo_OLED_FLOAT.elf.dir/Drivers/DMP/inv_mpu.c.obj
 .data          0x00000000        0x0 CMakeFiles/13_demo_OLED_FLOAT.elf.dir/Drivers/DMP/inv_mpu.c.obj
 .bss           0x00000000        0x0 CMakeFiles/13_demo_OLED_FLOAT.elf.dir/Drivers/DMP/inv_mpu.c.obj
 .text.mpu_reg_dump
                0x00000000       0x58 CMakeFiles/13_demo_OLED_FLOAT.elf.dir/Drivers/DMP/inv_mpu.c.obj
 .text.mpu_read_reg
                0x00000000       0x54 CMakeFiles/13_demo_OLED_FLOAT.elf.dir/Drivers/DMP/inv_mpu.c.obj
 .text.mpu_get_gyro_reg
                0x00000000       0x84 CMakeFiles/13_demo_OLED_FLOAT.elf.dir/Drivers/DMP/inv_mpu.c.obj
 .text.mpu_get_accel_reg
                0x00000000       0x84 CMakeFiles/13_demo_OLED_FLOAT.elf.dir/Drivers/DMP/inv_mpu.c.obj
 .text.mpu_get_temperature
                0x00000000       0xa0 CMakeFiles/13_demo_OLED_FLOAT.elf.dir/Drivers/DMP/inv_mpu.c.obj
 .text.mpu_set_accel_bias
                0x00000000      0x12c CMakeFiles/13_demo_OLED_FLOAT.elf.dir/Drivers/DMP/inv_mpu.c.obj
 .text.mpu_get_compass_sample_rate
                0x00000000        0xa CMakeFiles/13_demo_OLED_FLOAT.elf.dir/Drivers/DMP/inv_mpu.c.obj
 .text.mpu_set_compass_sample_rate
                0x00000000        0x6 CMakeFiles/13_demo_OLED_FLOAT.elf.dir/Drivers/DMP/inv_mpu.c.obj
 .text.mpu_get_power_state
                0x00000000       0x18 CMakeFiles/13_demo_OLED_FLOAT.elf.dir/Drivers/DMP/inv_mpu.c.obj
 .text.mpu_get_int_status
                0x00000000       0x50 CMakeFiles/13_demo_OLED_FLOAT.elf.dir/Drivers/DMP/inv_mpu.c.obj
 .text.mpu_read_fifo
                0x00000000      0x22c CMakeFiles/13_demo_OLED_FLOAT.elf.dir/Drivers/DMP/inv_mpu.c.obj
 .text.mpu_set_int_level
                0x00000000       0x10 CMakeFiles/13_demo_OLED_FLOAT.elf.dir/Drivers/DMP/inv_mpu.c.obj
 .text.mpu_get_dmp_state
                0x00000000       0x10 CMakeFiles/13_demo_OLED_FLOAT.elf.dir/Drivers/DMP/inv_mpu.c.obj
 .text.mpu_get_compass_reg
                0x00000000        0x6 CMakeFiles/13_demo_OLED_FLOAT.elf.dir/Drivers/DMP/inv_mpu.c.obj
 .text.mpu_get_compass_fsr
                0x00000000        0x6 CMakeFiles/13_demo_OLED_FLOAT.elf.dir/Drivers/DMP/inv_mpu.c.obj
 .text.mpu_lp_motion_interrupt
                0x00000000      0x224 CMakeFiles/13_demo_OLED_FLOAT.elf.dir/Drivers/DMP/inv_mpu.c.obj
 .text          0x00000000        0x0 CMakeFiles/13_demo_OLED_FLOAT.elf.dir/Drivers/DMP/inv_mpu_dmp_motion_driver.c.obj
 .data          0x00000000        0x0 CMakeFiles/13_demo_OLED_FLOAT.elf.dir/Drivers/DMP/inv_mpu_dmp_motion_driver.c.obj
 .bss           0x00000000        0x0 CMakeFiles/13_demo_OLED_FLOAT.elf.dir/Drivers/DMP/inv_mpu_dmp_motion_driver.c.obj
 .text.dmp_get_fifo_rate
                0x00000000       0x10 CMakeFiles/13_demo_OLED_FLOAT.elf.dir/Drivers/DMP/inv_mpu_dmp_motion_driver.c.obj
 .text.dmp_get_pedometer_step_count
                0x00000000       0x44 CMakeFiles/13_demo_OLED_FLOAT.elf.dir/Drivers/DMP/inv_mpu_dmp_motion_driver.c.obj
 .text.dmp_set_pedometer_step_count
                0x00000000       0x30 CMakeFiles/13_demo_OLED_FLOAT.elf.dir/Drivers/DMP/inv_mpu_dmp_motion_driver.c.obj
 .text.dmp_get_pedometer_walk_time
                0x00000000       0x4a CMakeFiles/13_demo_OLED_FLOAT.elf.dir/Drivers/DMP/inv_mpu_dmp_motion_driver.c.obj
 .text.dmp_set_pedometer_walk_time
                0x00000000       0x40 CMakeFiles/13_demo_OLED_FLOAT.elf.dir/Drivers/DMP/inv_mpu_dmp_motion_driver.c.obj
 .text.dmp_get_enabled_features
                0x00000000       0x10 CMakeFiles/13_demo_OLED_FLOAT.elf.dir/Drivers/DMP/inv_mpu_dmp_motion_driver.c.obj
 .rodata.dmp_set_interrupt_mode.str1.4
                0x00000000       0x18 CMakeFiles/13_demo_OLED_FLOAT.elf.dir/Drivers/DMP/inv_mpu_dmp_motion_driver.c.obj
 .text.dmp_set_interrupt_mode
                0x00000000       0x5c CMakeFiles/13_demo_OLED_FLOAT.elf.dir/Drivers/DMP/inv_mpu_dmp_motion_driver.c.obj
 .text.dmp_register_tap_cb
                0x00000000        0xc CMakeFiles/13_demo_OLED_FLOAT.elf.dir/Drivers/DMP/inv_mpu_dmp_motion_driver.c.obj
 .text.dmp_register_android_orient_cb
                0x00000000        0xc CMakeFiles/13_demo_OLED_FLOAT.elf.dir/Drivers/DMP/inv_mpu_dmp_motion_driver.c.obj
 .text          0x00000000        0x0 CMakeFiles/13_demo_OLED_FLOAT.elf.dir/Drivers/STM32F1xx_HAL_Driver/Src/stm32f1xx_hal.c.obj
 .data          0x00000000        0x0 CMakeFiles/13_demo_OLED_FLOAT.elf.dir/Drivers/STM32F1xx_HAL_Driver/Src/stm32f1xx_hal.c.obj
 .bss           0x00000000        0x0 CMakeFiles/13_demo_OLED_FLOAT.elf.dir/Drivers/STM32F1xx_HAL_Driver/Src/stm32f1xx_hal.c.obj
 .text.HAL_MspInit
                0x00000000        0x2 CMakeFiles/13_demo_OLED_FLOAT.elf.dir/Drivers/STM32F1xx_HAL_Driver/Src/stm32f1xx_hal.c.obj
 .text.HAL_MspDeInit
                0x00000000        0x2 CMakeFiles/13_demo_OLED_FLOAT.elf.dir/Drivers/STM32F1xx_HAL_Driver/Src/stm32f1xx_hal.c.obj
 .text.HAL_DeInit
                0x00000000       0x20 CMakeFiles/13_demo_OLED_FLOAT.elf.dir/Drivers/STM32F1xx_HAL_Driver/Src/stm32f1xx_hal.c.obj
 .text.HAL_GetTickPrio
                0x00000000        0xc CMakeFiles/13_demo_OLED_FLOAT.elf.dir/Drivers/STM32F1xx_HAL_Driver/Src/stm32f1xx_hal.c.obj
 .text.HAL_SetTickFreq
                0x00000000       0x2c CMakeFiles/13_demo_OLED_FLOAT.elf.dir/Drivers/STM32F1xx_HAL_Driver/Src/stm32f1xx_hal.c.obj
 .text.HAL_GetTickFreq
                0x00000000        0xc CMakeFiles/13_demo_OLED_FLOAT.elf.dir/Drivers/STM32F1xx_HAL_Driver/Src/stm32f1xx_hal.c.obj
 .text.HAL_SuspendTick
                0x00000000       0x10 CMakeFiles/13_demo_OLED_FLOAT.elf.dir/Drivers/STM32F1xx_HAL_Driver/Src/stm32f1xx_hal.c.obj
 .text.HAL_ResumeTick
                0x00000000       0x10 CMakeFiles/13_demo_OLED_FLOAT.elf.dir/Drivers/STM32F1xx_HAL_Driver/Src/stm32f1xx_hal.c.obj
 .text.HAL_GetHalVersion
                0x00000000        0x8 CMakeFiles/13_demo_OLED_FLOAT.elf.dir/Drivers/STM32F1xx_HAL_Driver/Src/stm32f1xx_hal.c.obj
 .text.HAL_GetREVID
                0x00000000        0xc CMakeFiles/13_demo_OLED_FLOAT.elf.dir/Drivers/STM32F1xx_HAL_Driver/Src/stm32f1xx_hal.c.obj
 .text.HAL_GetDEVID
                0x00000000       0x10 CMakeFiles/13_demo_OLED_FLOAT.elf.dir/Drivers/STM32F1xx_HAL_Driver/Src/stm32f1xx_hal.c.obj
 .text.HAL_GetUIDw0
                0x00000000        0xc CMakeFiles/13_demo_OLED_FLOAT.elf.dir/Drivers/STM32F1xx_HAL_Driver/Src/stm32f1xx_hal.c.obj
 .text.HAL_GetUIDw1
                0x00000000        0xc CMakeFiles/13_demo_OLED_FLOAT.elf.dir/Drivers/STM32F1xx_HAL_Driver/Src/stm32f1xx_hal.c.obj
 .text.HAL_GetUIDw2
                0x00000000        0xc CMakeFiles/13_demo_OLED_FLOAT.elf.dir/Drivers/STM32F1xx_HAL_Driver/Src/stm32f1xx_hal.c.obj
 .text.HAL_DBGMCU_EnableDBGSleepMode
                0x00000000       0x10 CMakeFiles/13_demo_OLED_FLOAT.elf.dir/Drivers/STM32F1xx_HAL_Driver/Src/stm32f1xx_hal.c.obj
 .text.HAL_DBGMCU_DisableDBGSleepMode
                0x00000000       0x10 CMakeFiles/13_demo_OLED_FLOAT.elf.dir/Drivers/STM32F1xx_HAL_Driver/Src/stm32f1xx_hal.c.obj
 .text.HAL_DBGMCU_EnableDBGStopMode
                0x00000000       0x10 CMakeFiles/13_demo_OLED_FLOAT.elf.dir/Drivers/STM32F1xx_HAL_Driver/Src/stm32f1xx_hal.c.obj
 .text.HAL_DBGMCU_DisableDBGStopMode
                0x00000000       0x10 CMakeFiles/13_demo_OLED_FLOAT.elf.dir/Drivers/STM32F1xx_HAL_Driver/Src/stm32f1xx_hal.c.obj
 .text.HAL_DBGMCU_EnableDBGStandbyMode
                0x00000000       0x10 CMakeFiles/13_demo_OLED_FLOAT.elf.dir/Drivers/STM32F1xx_HAL_Driver/Src/stm32f1xx_hal.c.obj
 .text.HAL_DBGMCU_DisableDBGStandbyMode
                0x00000000       0x10 CMakeFiles/13_demo_OLED_FLOAT.elf.dir/Drivers/STM32F1xx_HAL_Driver/Src/stm32f1xx_hal.c.obj
 .text          0x00000000        0x0 CMakeFiles/13_demo_OLED_FLOAT.elf.dir/Drivers/STM32F1xx_HAL_Driver/Src/stm32f1xx_hal_cortex.c.obj
 .data          0x00000000        0x0 CMakeFiles/13_demo_OLED_FLOAT.elf.dir/Drivers/STM32F1xx_HAL_Driver/Src/stm32f1xx_hal_cortex.c.obj
 .bss           0x00000000        0x0 CMakeFiles/13_demo_OLED_FLOAT.elf.dir/Drivers/STM32F1xx_HAL_Driver/Src/stm32f1xx_hal_cortex.c.obj
 .text.HAL_NVIC_EnableIRQ
                0x00000000       0x1c CMakeFiles/13_demo_OLED_FLOAT.elf.dir/Drivers/STM32F1xx_HAL_Driver/Src/stm32f1xx_hal_cortex.c.obj
 .text.HAL_NVIC_DisableIRQ
                0x00000000       0x24 CMakeFiles/13_demo_OLED_FLOAT.elf.dir/Drivers/STM32F1xx_HAL_Driver/Src/stm32f1xx_hal_cortex.c.obj
 .text.HAL_NVIC_SystemReset
                0x00000000       0x24 CMakeFiles/13_demo_OLED_FLOAT.elf.dir/Drivers/STM32F1xx_HAL_Driver/Src/stm32f1xx_hal_cortex.c.obj
 .text.HAL_NVIC_GetPriorityGrouping
                0x00000000       0x10 CMakeFiles/13_demo_OLED_FLOAT.elf.dir/Drivers/STM32F1xx_HAL_Driver/Src/stm32f1xx_hal_cortex.c.obj
 .text.HAL_NVIC_GetPriority
                0x00000000       0x60 CMakeFiles/13_demo_OLED_FLOAT.elf.dir/Drivers/STM32F1xx_HAL_Driver/Src/stm32f1xx_hal_cortex.c.obj
 .text.HAL_NVIC_SetPendingIRQ
                0x00000000       0x1c CMakeFiles/13_demo_OLED_FLOAT.elf.dir/Drivers/STM32F1xx_HAL_Driver/Src/stm32f1xx_hal_cortex.c.obj
 .text.HAL_NVIC_GetPendingIRQ
                0x00000000       0x24 CMakeFiles/13_demo_OLED_FLOAT.elf.dir/Drivers/STM32F1xx_HAL_Driver/Src/stm32f1xx_hal_cortex.c.obj
 .text.HAL_NVIC_ClearPendingIRQ
                0x00000000       0x1c CMakeFiles/13_demo_OLED_FLOAT.elf.dir/Drivers/STM32F1xx_HAL_Driver/Src/stm32f1xx_hal_cortex.c.obj
 .text.HAL_NVIC_GetActive
                0x00000000       0x24 CMakeFiles/13_demo_OLED_FLOAT.elf.dir/Drivers/STM32F1xx_HAL_Driver/Src/stm32f1xx_hal_cortex.c.obj
 .text.HAL_SYSTICK_CLKSourceConfig
                0x00000000       0x20 CMakeFiles/13_demo_OLED_FLOAT.elf.dir/Drivers/STM32F1xx_HAL_Driver/Src/stm32f1xx_hal_cortex.c.obj
 .text.HAL_SYSTICK_Callback
                0x00000000        0x2 CMakeFiles/13_demo_OLED_FLOAT.elf.dir/Drivers/STM32F1xx_HAL_Driver/Src/stm32f1xx_hal_cortex.c.obj
 .text.HAL_SYSTICK_IRQHandler
                0x00000000        0x8 CMakeFiles/13_demo_OLED_FLOAT.elf.dir/Drivers/STM32F1xx_HAL_Driver/Src/stm32f1xx_hal_cortex.c.obj
 .text          0x00000000        0x0 CMakeFiles/13_demo_OLED_FLOAT.elf.dir/Drivers/STM32F1xx_HAL_Driver/Src/stm32f1xx_hal_dma.c.obj
 .data          0x00000000        0x0 CMakeFiles/13_demo_OLED_FLOAT.elf.dir/Drivers/STM32F1xx_HAL_Driver/Src/stm32f1xx_hal_dma.c.obj
 .bss           0x00000000        0x0 CMakeFiles/13_demo_OLED_FLOAT.elf.dir/Drivers/STM32F1xx_HAL_Driver/Src/stm32f1xx_hal_dma.c.obj
 .text.DMA_SetConfig
                0x00000000       0x2c CMakeFiles/13_demo_OLED_FLOAT.elf.dir/Drivers/STM32F1xx_HAL_Driver/Src/stm32f1xx_hal_dma.c.obj
 .text.HAL_DMA_Init
                0x00000000       0x6c CMakeFiles/13_demo_OLED_FLOAT.elf.dir/Drivers/STM32F1xx_HAL_Driver/Src/stm32f1xx_hal_dma.c.obj
 .text.HAL_DMA_DeInit
                0x00000000       0x68 CMakeFiles/13_demo_OLED_FLOAT.elf.dir/Drivers/STM32F1xx_HAL_Driver/Src/stm32f1xx_hal_dma.c.obj
 .text.HAL_DMA_Start
                0x00000000       0x50 CMakeFiles/13_demo_OLED_FLOAT.elf.dir/Drivers/STM32F1xx_HAL_Driver/Src/stm32f1xx_hal_dma.c.obj
 .text.HAL_DMA_Start_IT
                0x00000000       0x74 CMakeFiles/13_demo_OLED_FLOAT.elf.dir/Drivers/STM32F1xx_HAL_Driver/Src/stm32f1xx_hal_dma.c.obj
 .text.HAL_DMA_Abort
                0x00000000       0x44 CMakeFiles/13_demo_OLED_FLOAT.elf.dir/Drivers/STM32F1xx_HAL_Driver/Src/stm32f1xx_hal_dma.c.obj
 .text.HAL_DMA_Abort_IT
                0x00000000       0x98 CMakeFiles/13_demo_OLED_FLOAT.elf.dir/Drivers/STM32F1xx_HAL_Driver/Src/stm32f1xx_hal_dma.c.obj
 .text.HAL_DMA_PollForTransfer
                0x00000000      0x22c CMakeFiles/13_demo_OLED_FLOAT.elf.dir/Drivers/STM32F1xx_HAL_Driver/Src/stm32f1xx_hal_dma.c.obj
 .text.HAL_DMA_IRQHandler
                0x00000000      0x144 CMakeFiles/13_demo_OLED_FLOAT.elf.dir/Drivers/STM32F1xx_HAL_Driver/Src/stm32f1xx_hal_dma.c.obj
 .text.HAL_DMA_RegisterCallback
                0x00000000       0x44 CMakeFiles/13_demo_OLED_FLOAT.elf.dir/Drivers/STM32F1xx_HAL_Driver/Src/stm32f1xx_hal_dma.c.obj
 .text.HAL_DMA_UnRegisterCallback
                0x00000000       0x5a CMakeFiles/13_demo_OLED_FLOAT.elf.dir/Drivers/STM32F1xx_HAL_Driver/Src/stm32f1xx_hal_dma.c.obj
 .text.HAL_DMA_GetState
                0x00000000        0x6 CMakeFiles/13_demo_OLED_FLOAT.elf.dir/Drivers/STM32F1xx_HAL_Driver/Src/stm32f1xx_hal_dma.c.obj
 .text.HAL_DMA_GetError
                0x00000000        0x4 CMakeFiles/13_demo_OLED_FLOAT.elf.dir/Drivers/STM32F1xx_HAL_Driver/Src/stm32f1xx_hal_dma.c.obj
 .debug_info    0x00000000      0x932 CMakeFiles/13_demo_OLED_FLOAT.elf.dir/Drivers/STM32F1xx_HAL_Driver/Src/stm32f1xx_hal_dma.c.obj
 .debug_abbrev  0x00000000      0x262 CMakeFiles/13_demo_OLED_FLOAT.elf.dir/Drivers/STM32F1xx_HAL_Driver/Src/stm32f1xx_hal_dma.c.obj
 .debug_loc     0x00000000      0x7d1 CMakeFiles/13_demo_OLED_FLOAT.elf.dir/Drivers/STM32F1xx_HAL_Driver/Src/stm32f1xx_hal_dma.c.obj
 .debug_aranges
                0x00000000       0x80 CMakeFiles/13_demo_OLED_FLOAT.elf.dir/Drivers/STM32F1xx_HAL_Driver/Src/stm32f1xx_hal_dma.c.obj
 .debug_ranges  0x00000000       0x70 CMakeFiles/13_demo_OLED_FLOAT.elf.dir/Drivers/STM32F1xx_HAL_Driver/Src/stm32f1xx_hal_dma.c.obj
 .debug_line    0x00000000      0xb2b CMakeFiles/13_demo_OLED_FLOAT.elf.dir/Drivers/STM32F1xx_HAL_Driver/Src/stm32f1xx_hal_dma.c.obj
 .debug_str     0x00000000      0x759 CMakeFiles/13_demo_OLED_FLOAT.elf.dir/Drivers/STM32F1xx_HAL_Driver/Src/stm32f1xx_hal_dma.c.obj
 .comment       0x00000000       0x7a CMakeFiles/13_demo_OLED_FLOAT.elf.dir/Drivers/STM32F1xx_HAL_Driver/Src/stm32f1xx_hal_dma.c.obj
 .debug_frame   0x00000000      0x148 CMakeFiles/13_demo_OLED_FLOAT.elf.dir/Drivers/STM32F1xx_HAL_Driver/Src/stm32f1xx_hal_dma.c.obj
 .ARM.attributes
                0x00000000       0x2d CMakeFiles/13_demo_OLED_FLOAT.elf.dir/Drivers/STM32F1xx_HAL_Driver/Src/stm32f1xx_hal_dma.c.obj
 .text          0x00000000        0x0 CMakeFiles/13_demo_OLED_FLOAT.elf.dir/Drivers/STM32F1xx_HAL_Driver/Src/stm32f1xx_hal_exti.c.obj
 .data          0x00000000        0x0 CMakeFiles/13_demo_OLED_FLOAT.elf.dir/Drivers/STM32F1xx_HAL_Driver/Src/stm32f1xx_hal_exti.c.obj
 .bss           0x00000000        0x0 CMakeFiles/13_demo_OLED_FLOAT.elf.dir/Drivers/STM32F1xx_HAL_Driver/Src/stm32f1xx_hal_exti.c.obj
 .text.HAL_EXTI_SetConfigLine
                0x00000000       0xd8 CMakeFiles/13_demo_OLED_FLOAT.elf.dir/Drivers/STM32F1xx_HAL_Driver/Src/stm32f1xx_hal_exti.c.obj
 .text.HAL_EXTI_GetConfigLine
                0x00000000       0xa8 CMakeFiles/13_demo_OLED_FLOAT.elf.dir/Drivers/STM32F1xx_HAL_Driver/Src/stm32f1xx_hal_exti.c.obj
 .text.HAL_EXTI_ClearConfigLine
                0x00000000       0x80 CMakeFiles/13_demo_OLED_FLOAT.elf.dir/Drivers/STM32F1xx_HAL_Driver/Src/stm32f1xx_hal_exti.c.obj
 .text.HAL_EXTI_RegisterCallback
                0x00000000        0xe CMakeFiles/13_demo_OLED_FLOAT.elf.dir/Drivers/STM32F1xx_HAL_Driver/Src/stm32f1xx_hal_exti.c.obj
 .text.HAL_EXTI_GetHandle
                0x00000000        0xc CMakeFiles/13_demo_OLED_FLOAT.elf.dir/Drivers/STM32F1xx_HAL_Driver/Src/stm32f1xx_hal_exti.c.obj
 .text.HAL_EXTI_IRQHandler
                0x00000000       0x24 CMakeFiles/13_demo_OLED_FLOAT.elf.dir/Drivers/STM32F1xx_HAL_Driver/Src/stm32f1xx_hal_exti.c.obj
 .text.HAL_EXTI_GetPending
                0x00000000       0x1c CMakeFiles/13_demo_OLED_FLOAT.elf.dir/Drivers/STM32F1xx_HAL_Driver/Src/stm32f1xx_hal_exti.c.obj
 .text.HAL_EXTI_ClearPending
                0x00000000       0x14 CMakeFiles/13_demo_OLED_FLOAT.elf.dir/Drivers/STM32F1xx_HAL_Driver/Src/stm32f1xx_hal_exti.c.obj
 .text.HAL_EXTI_GenerateSWI
                0x00000000       0x14 CMakeFiles/13_demo_OLED_FLOAT.elf.dir/Drivers/STM32F1xx_HAL_Driver/Src/stm32f1xx_hal_exti.c.obj
 .debug_info    0x00000000      0x6a0 CMakeFiles/13_demo_OLED_FLOAT.elf.dir/Drivers/STM32F1xx_HAL_Driver/Src/stm32f1xx_hal_exti.c.obj
 .debug_abbrev  0x00000000      0x20d CMakeFiles/13_demo_OLED_FLOAT.elf.dir/Drivers/STM32F1xx_HAL_Driver/Src/stm32f1xx_hal_exti.c.obj
 .debug_loc     0x00000000      0x4ee CMakeFiles/13_demo_OLED_FLOAT.elf.dir/Drivers/STM32F1xx_HAL_Driver/Src/stm32f1xx_hal_exti.c.obj
 .debug_aranges
                0x00000000       0x60 CMakeFiles/13_demo_OLED_FLOAT.elf.dir/Drivers/STM32F1xx_HAL_Driver/Src/stm32f1xx_hal_exti.c.obj
 .debug_ranges  0x00000000       0x50 CMakeFiles/13_demo_OLED_FLOAT.elf.dir/Drivers/STM32F1xx_HAL_Driver/Src/stm32f1xx_hal_exti.c.obj
 .debug_line    0x00000000      0x6d7 CMakeFiles/13_demo_OLED_FLOAT.elf.dir/Drivers/STM32F1xx_HAL_Driver/Src/stm32f1xx_hal_exti.c.obj
 .debug_str     0x00000000      0x532 CMakeFiles/13_demo_OLED_FLOAT.elf.dir/Drivers/STM32F1xx_HAL_Driver/Src/stm32f1xx_hal_exti.c.obj
 .comment       0x00000000       0x7a CMakeFiles/13_demo_OLED_FLOAT.elf.dir/Drivers/STM32F1xx_HAL_Driver/Src/stm32f1xx_hal_exti.c.obj
 .debug_frame   0x00000000       0xf4 CMakeFiles/13_demo_OLED_FLOAT.elf.dir/Drivers/STM32F1xx_HAL_Driver/Src/stm32f1xx_hal_exti.c.obj
 .ARM.attributes
                0x00000000       0x2d CMakeFiles/13_demo_OLED_FLOAT.elf.dir/Drivers/STM32F1xx_HAL_Driver/Src/stm32f1xx_hal_exti.c.obj
 .text          0x00000000        0x0 CMakeFiles/13_demo_OLED_FLOAT.elf.dir/Drivers/STM32F1xx_HAL_Driver/Src/stm32f1xx_hal_flash.c.obj
 .data          0x00000000        0x0 CMakeFiles/13_demo_OLED_FLOAT.elf.dir/Drivers/STM32F1xx_HAL_Driver/Src/stm32f1xx_hal_flash.c.obj
 .bss           0x00000000        0x0 CMakeFiles/13_demo_OLED_FLOAT.elf.dir/Drivers/STM32F1xx_HAL_Driver/Src/stm32f1xx_hal_flash.c.obj
 .text.FLASH_Program_HalfWord
                0x00000000       0x1c CMakeFiles/13_demo_OLED_FLOAT.elf.dir/Drivers/STM32F1xx_HAL_Driver/Src/stm32f1xx_hal_flash.c.obj
 .text.FLASH_SetErrorCode
                0x00000000       0x70 CMakeFiles/13_demo_OLED_FLOAT.elf.dir/Drivers/STM32F1xx_HAL_Driver/Src/stm32f1xx_hal_flash.c.obj
 .text.HAL_FLASH_Program_IT
                0x00000000       0x68 CMakeFiles/13_demo_OLED_FLOAT.elf.dir/Drivers/STM32F1xx_HAL_Driver/Src/stm32f1xx_hal_flash.c.obj
 .text.HAL_FLASH_EndOfOperationCallback
                0x00000000        0x2 CMakeFiles/13_demo_OLED_FLOAT.elf.dir/Drivers/STM32F1xx_HAL_Driver/Src/stm32f1xx_hal_flash.c.obj
 .text.HAL_FLASH_OperationErrorCallback
                0x00000000        0x2 CMakeFiles/13_demo_OLED_FLOAT.elf.dir/Drivers/STM32F1xx_HAL_Driver/Src/stm32f1xx_hal_flash.c.obj
 .text.HAL_FLASH_IRQHandler
                0x00000000      0x154 CMakeFiles/13_demo_OLED_FLOAT.elf.dir/Drivers/STM32F1xx_HAL_Driver/Src/stm32f1xx_hal_flash.c.obj
 .text.HAL_FLASH_Unlock
                0x00000000       0x34 CMakeFiles/13_demo_OLED_FLOAT.elf.dir/Drivers/STM32F1xx_HAL_Driver/Src/stm32f1xx_hal_flash.c.obj
 .text.HAL_FLASH_Lock
                0x00000000       0x14 CMakeFiles/13_demo_OLED_FLOAT.elf.dir/Drivers/STM32F1xx_HAL_Driver/Src/stm32f1xx_hal_flash.c.obj
 .text.HAL_FLASH_OB_Unlock
                0x00000000       0x28 CMakeFiles/13_demo_OLED_FLOAT.elf.dir/Drivers/STM32F1xx_HAL_Driver/Src/stm32f1xx_hal_flash.c.obj
 .text.HAL_FLASH_OB_Lock
                0x00000000       0x14 CMakeFiles/13_demo_OLED_FLOAT.elf.dir/Drivers/STM32F1xx_HAL_Driver/Src/stm32f1xx_hal_flash.c.obj
 .text.HAL_FLASH_OB_Launch
                0x00000000        0x8 CMakeFiles/13_demo_OLED_FLOAT.elf.dir/Drivers/STM32F1xx_HAL_Driver/Src/stm32f1xx_hal_flash.c.obj
 .text.HAL_FLASH_GetError
                0x00000000        0xc CMakeFiles/13_demo_OLED_FLOAT.elf.dir/Drivers/STM32F1xx_HAL_Driver/Src/stm32f1xx_hal_flash.c.obj
 .text.FLASH_WaitForLastOperation
                0x00000000       0x68 CMakeFiles/13_demo_OLED_FLOAT.elf.dir/Drivers/STM32F1xx_HAL_Driver/Src/stm32f1xx_hal_flash.c.obj
 .text.HAL_FLASH_Program
                0x00000000       0x9c CMakeFiles/13_demo_OLED_FLOAT.elf.dir/Drivers/STM32F1xx_HAL_Driver/Src/stm32f1xx_hal_flash.c.obj
 .bss.pFlash    0x00000000       0x20 CMakeFiles/13_demo_OLED_FLOAT.elf.dir/Drivers/STM32F1xx_HAL_Driver/Src/stm32f1xx_hal_flash.c.obj
 .debug_info    0x00000000      0x76c CMakeFiles/13_demo_OLED_FLOAT.elf.dir/Drivers/STM32F1xx_HAL_Driver/Src/stm32f1xx_hal_flash.c.obj
 .debug_abbrev  0x00000000      0x26c CMakeFiles/13_demo_OLED_FLOAT.elf.dir/Drivers/STM32F1xx_HAL_Driver/Src/stm32f1xx_hal_flash.c.obj
 .debug_loc     0x00000000      0x3a3 CMakeFiles/13_demo_OLED_FLOAT.elf.dir/Drivers/STM32F1xx_HAL_Driver/Src/stm32f1xx_hal_flash.c.obj
 .debug_aranges
                0x00000000       0x88 CMakeFiles/13_demo_OLED_FLOAT.elf.dir/Drivers/STM32F1xx_HAL_Driver/Src/stm32f1xx_hal_flash.c.obj
 .debug_ranges  0x00000000       0x78 CMakeFiles/13_demo_OLED_FLOAT.elf.dir/Drivers/STM32F1xx_HAL_Driver/Src/stm32f1xx_hal_flash.c.obj
 .debug_line    0x00000000      0x84e CMakeFiles/13_demo_OLED_FLOAT.elf.dir/Drivers/STM32F1xx_HAL_Driver/Src/stm32f1xx_hal_flash.c.obj
 .debug_str     0x00000000      0x679 CMakeFiles/13_demo_OLED_FLOAT.elf.dir/Drivers/STM32F1xx_HAL_Driver/Src/stm32f1xx_hal_flash.c.obj
 .comment       0x00000000       0x7a CMakeFiles/13_demo_OLED_FLOAT.elf.dir/Drivers/STM32F1xx_HAL_Driver/Src/stm32f1xx_hal_flash.c.obj
 .debug_frame   0x00000000      0x134 CMakeFiles/13_demo_OLED_FLOAT.elf.dir/Drivers/STM32F1xx_HAL_Driver/Src/stm32f1xx_hal_flash.c.obj
 .ARM.attributes
                0x00000000       0x2d CMakeFiles/13_demo_OLED_FLOAT.elf.dir/Drivers/STM32F1xx_HAL_Driver/Src/stm32f1xx_hal_flash.c.obj
 .text          0x00000000        0x0 CMakeFiles/13_demo_OLED_FLOAT.elf.dir/Drivers/STM32F1xx_HAL_Driver/Src/stm32f1xx_hal_flash_ex.c.obj
 .data          0x00000000        0x0 CMakeFiles/13_demo_OLED_FLOAT.elf.dir/Drivers/STM32F1xx_HAL_Driver/Src/stm32f1xx_hal_flash_ex.c.obj
 .bss           0x00000000        0x0 CMakeFiles/13_demo_OLED_FLOAT.elf.dir/Drivers/STM32F1xx_HAL_Driver/Src/stm32f1xx_hal_flash_ex.c.obj
 .text.FLASH_MassErase
                0x00000000       0x24 CMakeFiles/13_demo_OLED_FLOAT.elf.dir/Drivers/STM32F1xx_HAL_Driver/Src/stm32f1xx_hal_flash_ex.c.obj
 .text.FLASH_OB_GetWRP
                0x00000000        0xc CMakeFiles/13_demo_OLED_FLOAT.elf.dir/Drivers/STM32F1xx_HAL_Driver/Src/stm32f1xx_hal_flash_ex.c.obj
 .text.FLASH_OB_GetRDP
                0x00000000       0x18 CMakeFiles/13_demo_OLED_FLOAT.elf.dir/Drivers/STM32F1xx_HAL_Driver/Src/stm32f1xx_hal_flash_ex.c.obj
 .text.FLASH_OB_GetUser
                0x00000000       0x10 CMakeFiles/13_demo_OLED_FLOAT.elf.dir/Drivers/STM32F1xx_HAL_Driver/Src/stm32f1xx_hal_flash_ex.c.obj
 .text.FLASH_OB_RDP_LevelConfig
                0x00000000       0x68 CMakeFiles/13_demo_OLED_FLOAT.elf.dir/Drivers/STM32F1xx_HAL_Driver/Src/stm32f1xx_hal_flash_ex.c.obj
 .text.FLASH_OB_UserConfig
                0x00000000       0x48 CMakeFiles/13_demo_OLED_FLOAT.elf.dir/Drivers/STM32F1xx_HAL_Driver/Src/stm32f1xx_hal_flash_ex.c.obj
 .text.FLASH_OB_ProgramData
                0x00000000       0x40 CMakeFiles/13_demo_OLED_FLOAT.elf.dir/Drivers/STM32F1xx_HAL_Driver/Src/stm32f1xx_hal_flash_ex.c.obj
 .text.HAL_FLASHEx_OBErase
                0x00000000       0x50 CMakeFiles/13_demo_OLED_FLOAT.elf.dir/Drivers/STM32F1xx_HAL_Driver/Src/stm32f1xx_hal_flash_ex.c.obj
 .text.FLASH_OB_EnableWRP
                0x00000000       0xc0 CMakeFiles/13_demo_OLED_FLOAT.elf.dir/Drivers/STM32F1xx_HAL_Driver/Src/stm32f1xx_hal_flash_ex.c.obj
 .text.FLASH_OB_DisableWRP
                0x00000000       0xc8 CMakeFiles/13_demo_OLED_FLOAT.elf.dir/Drivers/STM32F1xx_HAL_Driver/Src/stm32f1xx_hal_flash_ex.c.obj
 .text.HAL_FLASHEx_OBProgram
                0x00000000       0x9c CMakeFiles/13_demo_OLED_FLOAT.elf.dir/Drivers/STM32F1xx_HAL_Driver/Src/stm32f1xx_hal_flash_ex.c.obj
 .text.HAL_FLASHEx_OBGetConfig
                0x00000000       0x1c CMakeFiles/13_demo_OLED_FLOAT.elf.dir/Drivers/STM32F1xx_HAL_Driver/Src/stm32f1xx_hal_flash_ex.c.obj
 .text.HAL_FLASHEx_OBGetUserData
                0x00000000       0x24 CMakeFiles/13_demo_OLED_FLOAT.elf.dir/Drivers/STM32F1xx_HAL_Driver/Src/stm32f1xx_hal_flash_ex.c.obj
 .text.FLASH_PageErase
                0x00000000       0x24 CMakeFiles/13_demo_OLED_FLOAT.elf.dir/Drivers/STM32F1xx_HAL_Driver/Src/stm32f1xx_hal_flash_ex.c.obj
 .text.HAL_FLASHEx_Erase
                0x00000000       0xa4 CMakeFiles/13_demo_OLED_FLOAT.elf.dir/Drivers/STM32F1xx_HAL_Driver/Src/stm32f1xx_hal_flash_ex.c.obj
 .text.HAL_FLASHEx_Erase_IT
                0x00000000       0x60 CMakeFiles/13_demo_OLED_FLOAT.elf.dir/Drivers/STM32F1xx_HAL_Driver/Src/stm32f1xx_hal_flash_ex.c.obj
 .debug_info    0x00000000      0xbce CMakeFiles/13_demo_OLED_FLOAT.elf.dir/Drivers/STM32F1xx_HAL_Driver/Src/stm32f1xx_hal_flash_ex.c.obj
 .debug_abbrev  0x00000000      0x260 CMakeFiles/13_demo_OLED_FLOAT.elf.dir/Drivers/STM32F1xx_HAL_Driver/Src/stm32f1xx_hal_flash_ex.c.obj
 .debug_loc     0x00000000      0x87f CMakeFiles/13_demo_OLED_FLOAT.elf.dir/Drivers/STM32F1xx_HAL_Driver/Src/stm32f1xx_hal_flash_ex.c.obj
 .debug_aranges
                0x00000000       0x98 CMakeFiles/13_demo_OLED_FLOAT.elf.dir/Drivers/STM32F1xx_HAL_Driver/Src/stm32f1xx_hal_flash_ex.c.obj
 .debug_ranges  0x00000000       0x88 CMakeFiles/13_demo_OLED_FLOAT.elf.dir/Drivers/STM32F1xx_HAL_Driver/Src/stm32f1xx_hal_flash_ex.c.obj
 .debug_line    0x00000000      0x9ef CMakeFiles/13_demo_OLED_FLOAT.elf.dir/Drivers/STM32F1xx_HAL_Driver/Src/stm32f1xx_hal_flash_ex.c.obj
 .debug_str     0x00000000      0x78f CMakeFiles/13_demo_OLED_FLOAT.elf.dir/Drivers/STM32F1xx_HAL_Driver/Src/stm32f1xx_hal_flash_ex.c.obj
 .comment       0x00000000       0x7a CMakeFiles/13_demo_OLED_FLOAT.elf.dir/Drivers/STM32F1xx_HAL_Driver/Src/stm32f1xx_hal_flash_ex.c.obj
 .debug_frame   0x00000000      0x194 CMakeFiles/13_demo_OLED_FLOAT.elf.dir/Drivers/STM32F1xx_HAL_Driver/Src/stm32f1xx_hal_flash_ex.c.obj
 .ARM.attributes
                0x00000000       0x2d CMakeFiles/13_demo_OLED_FLOAT.elf.dir/Drivers/STM32F1xx_HAL_Driver/Src/stm32f1xx_hal_flash_ex.c.obj
 .text          0x00000000        0x0 CMakeFiles/13_demo_OLED_FLOAT.elf.dir/Drivers/STM32F1xx_HAL_Driver/Src/stm32f1xx_hal_gpio.c.obj
 .data          0x00000000        0x0 CMakeFiles/13_demo_OLED_FLOAT.elf.dir/Drivers/STM32F1xx_HAL_Driver/Src/stm32f1xx_hal_gpio.c.obj
 .bss           0x00000000        0x0 CMakeFiles/13_demo_OLED_FLOAT.elf.dir/Drivers/STM32F1xx_HAL_Driver/Src/stm32f1xx_hal_gpio.c.obj
 .text.HAL_GPIO_DeInit
                0x00000000       0xfc CMakeFiles/13_demo_OLED_FLOAT.elf.dir/Drivers/STM32F1xx_HAL_Driver/Src/stm32f1xx_hal_gpio.c.obj
 .text.HAL_GPIO_ReadPin
                0x00000000        0xe CMakeFiles/13_demo_OLED_FLOAT.elf.dir/Drivers/STM32F1xx_HAL_Driver/Src/stm32f1xx_hal_gpio.c.obj
 .text.HAL_GPIO_TogglePin
                0x00000000       0x12 CMakeFiles/13_demo_OLED_FLOAT.elf.dir/Drivers/STM32F1xx_HAL_Driver/Src/stm32f1xx_hal_gpio.c.obj
 .text.HAL_GPIO_LockPin
                0x00000000       0x2e CMakeFiles/13_demo_OLED_FLOAT.elf.dir/Drivers/STM32F1xx_HAL_Driver/Src/stm32f1xx_hal_gpio.c.obj
 .text.HAL_GPIO_EXTI_Callback
                0x00000000        0x2 CMakeFiles/13_demo_OLED_FLOAT.elf.dir/Drivers/STM32F1xx_HAL_Driver/Src/stm32f1xx_hal_gpio.c.obj
 .text.HAL_GPIO_EXTI_IRQHandler
                0x00000000       0x1c CMakeFiles/13_demo_OLED_FLOAT.elf.dir/Drivers/STM32F1xx_HAL_Driver/Src/stm32f1xx_hal_gpio.c.obj
 .text          0x00000000        0x0 CMakeFiles/13_demo_OLED_FLOAT.elf.dir/Drivers/STM32F1xx_HAL_Driver/Src/stm32f1xx_hal_gpio_ex.c.obj
 .data          0x00000000        0x0 CMakeFiles/13_demo_OLED_FLOAT.elf.dir/Drivers/STM32F1xx_HAL_Driver/Src/stm32f1xx_hal_gpio_ex.c.obj
 .bss           0x00000000        0x0 CMakeFiles/13_demo_OLED_FLOAT.elf.dir/Drivers/STM32F1xx_HAL_Driver/Src/stm32f1xx_hal_gpio_ex.c.obj
 .text.HAL_GPIOEx_ConfigEventout
                0x00000000       0x14 CMakeFiles/13_demo_OLED_FLOAT.elf.dir/Drivers/STM32F1xx_HAL_Driver/Src/stm32f1xx_hal_gpio_ex.c.obj
 .text.HAL_GPIOEx_EnableEventout
                0x00000000       0x10 CMakeFiles/13_demo_OLED_FLOAT.elf.dir/Drivers/STM32F1xx_HAL_Driver/Src/stm32f1xx_hal_gpio_ex.c.obj
 .text.HAL_GPIOEx_DisableEventout
                0x00000000       0x10 CMakeFiles/13_demo_OLED_FLOAT.elf.dir/Drivers/STM32F1xx_HAL_Driver/Src/stm32f1xx_hal_gpio_ex.c.obj
 .debug_info    0x00000000      0x248 CMakeFiles/13_demo_OLED_FLOAT.elf.dir/Drivers/STM32F1xx_HAL_Driver/Src/stm32f1xx_hal_gpio_ex.c.obj
 .debug_abbrev  0x00000000      0x123 CMakeFiles/13_demo_OLED_FLOAT.elf.dir/Drivers/STM32F1xx_HAL_Driver/Src/stm32f1xx_hal_gpio_ex.c.obj
 .debug_loc     0x00000000       0x25 CMakeFiles/13_demo_OLED_FLOAT.elf.dir/Drivers/STM32F1xx_HAL_Driver/Src/stm32f1xx_hal_gpio_ex.c.obj
 .debug_aranges
                0x00000000       0x30 CMakeFiles/13_demo_OLED_FLOAT.elf.dir/Drivers/STM32F1xx_HAL_Driver/Src/stm32f1xx_hal_gpio_ex.c.obj
 .debug_ranges  0x00000000       0x20 CMakeFiles/13_demo_OLED_FLOAT.elf.dir/Drivers/STM32F1xx_HAL_Driver/Src/stm32f1xx_hal_gpio_ex.c.obj
 .debug_line    0x00000000      0x2b3 CMakeFiles/13_demo_OLED_FLOAT.elf.dir/Drivers/STM32F1xx_HAL_Driver/Src/stm32f1xx_hal_gpio_ex.c.obj
 .debug_str     0x00000000      0x3b3 CMakeFiles/13_demo_OLED_FLOAT.elf.dir/Drivers/STM32F1xx_HAL_Driver/Src/stm32f1xx_hal_gpio_ex.c.obj
 .comment       0x00000000       0x7a CMakeFiles/13_demo_OLED_FLOAT.elf.dir/Drivers/STM32F1xx_HAL_Driver/Src/stm32f1xx_hal_gpio_ex.c.obj
 .debug_frame   0x00000000       0x40 CMakeFiles/13_demo_OLED_FLOAT.elf.dir/Drivers/STM32F1xx_HAL_Driver/Src/stm32f1xx_hal_gpio_ex.c.obj
 .ARM.attributes
                0x00000000       0x2d CMakeFiles/13_demo_OLED_FLOAT.elf.dir/Drivers/STM32F1xx_HAL_Driver/Src/stm32f1xx_hal_gpio_ex.c.obj
 .text          0x00000000        0x0 CMakeFiles/13_demo_OLED_FLOAT.elf.dir/Drivers/STM32F1xx_HAL_Driver/Src/stm32f1xx_hal_i2c.c.obj
 .data          0x00000000        0x0 CMakeFiles/13_demo_OLED_FLOAT.elf.dir/Drivers/STM32F1xx_HAL_Driver/Src/stm32f1xx_hal_i2c.c.obj
 .bss           0x00000000        0x0 CMakeFiles/13_demo_OLED_FLOAT.elf.dir/Drivers/STM32F1xx_HAL_Driver/Src/stm32f1xx_hal_i2c.c.obj
 .text.I2C_Master_SB
                0x00000000       0xa8 CMakeFiles/13_demo_OLED_FLOAT.elf.dir/Drivers/STM32F1xx_HAL_Driver/Src/stm32f1xx_hal_i2c.c.obj
 .text.I2C_Master_ADD10
                0x00000000       0x2a CMakeFiles/13_demo_OLED_FLOAT.elf.dir/Drivers/STM32F1xx_HAL_Driver/Src/stm32f1xx_hal_i2c.c.obj
 .text.I2C_Master_ADDR
                0x00000000      0x216 CMakeFiles/13_demo_OLED_FLOAT.elf.dir/Drivers/STM32F1xx_HAL_Driver/Src/stm32f1xx_hal_i2c.c.obj
 .text.I2C_SlaveTransmit_BTF
                0x00000000       0x20 CMakeFiles/13_demo_OLED_FLOAT.elf.dir/Drivers/STM32F1xx_HAL_Driver/Src/stm32f1xx_hal_i2c.c.obj
 .text.I2C_SlaveReceive_BTF
                0x00000000       0x20 CMakeFiles/13_demo_OLED_FLOAT.elf.dir/Drivers/STM32F1xx_HAL_Driver/Src/stm32f1xx_hal_i2c.c.obj
 .text.I2C_WaitOnSTOPRequestThroughIT
                0x00000000       0x48 CMakeFiles/13_demo_OLED_FLOAT.elf.dir/Drivers/STM32F1xx_HAL_Driver/Src/stm32f1xx_hal_i2c.c.obj
 .text.I2C_ConvertOtherXferOptions
                0x00000000       0x1e CMakeFiles/13_demo_OLED_FLOAT.elf.dir/Drivers/STM32F1xx_HAL_Driver/Src/stm32f1xx_hal_i2c.c.obj
 .text.I2C_MasterRequestWrite
                0x00000000       0xb4 CMakeFiles/13_demo_OLED_FLOAT.elf.dir/Drivers/STM32F1xx_HAL_Driver/Src/stm32f1xx_hal_i2c.c.obj
 .text.I2C_MasterRequestRead
                0x00000000      0x120 CMakeFiles/13_demo_OLED_FLOAT.elf.dir/Drivers/STM32F1xx_HAL_Driver/Src/stm32f1xx_hal_i2c.c.obj
 .text.I2C_WaitOnSTOPFlagUntilTimeout
                0x00000000       0x4e CMakeFiles/13_demo_OLED_FLOAT.elf.dir/Drivers/STM32F1xx_HAL_Driver/Src/stm32f1xx_hal_i2c.c.obj
 .text.HAL_I2C_MspInit
                0x00000000        0x2 CMakeFiles/13_demo_OLED_FLOAT.elf.dir/Drivers/STM32F1xx_HAL_Driver/Src/stm32f1xx_hal_i2c.c.obj
 .text.HAL_I2C_MspDeInit
                0x00000000        0x2 CMakeFiles/13_demo_OLED_FLOAT.elf.dir/Drivers/STM32F1xx_HAL_Driver/Src/stm32f1xx_hal_i2c.c.obj
 .text.HAL_I2C_DeInit
                0x00000000       0x32 CMakeFiles/13_demo_OLED_FLOAT.elf.dir/Drivers/STM32F1xx_HAL_Driver/Src/stm32f1xx_hal_i2c.c.obj
 .text.HAL_I2C_Master_Transmit
                0x00000000      0x178 CMakeFiles/13_demo_OLED_FLOAT.elf.dir/Drivers/STM32F1xx_HAL_Driver/Src/stm32f1xx_hal_i2c.c.obj
 .text.HAL_I2C_Master_Receive
                0x00000000      0x340 CMakeFiles/13_demo_OLED_FLOAT.elf.dir/Drivers/STM32F1xx_HAL_Driver/Src/stm32f1xx_hal_i2c.c.obj
 .text.HAL_I2C_Slave_Transmit
                0x00000000      0x198 CMakeFiles/13_demo_OLED_FLOAT.elf.dir/Drivers/STM32F1xx_HAL_Driver/Src/stm32f1xx_hal_i2c.c.obj
 .text.HAL_I2C_Slave_Receive
                0x00000000      0x174 CMakeFiles/13_demo_OLED_FLOAT.elf.dir/Drivers/STM32F1xx_HAL_Driver/Src/stm32f1xx_hal_i2c.c.obj
 .text.HAL_I2C_Master_Transmit_IT
                0x00000000       0xd8 CMakeFiles/13_demo_OLED_FLOAT.elf.dir/Drivers/STM32F1xx_HAL_Driver/Src/stm32f1xx_hal_i2c.c.obj
 .text.HAL_I2C_Master_Receive_IT
                0x00000000       0xe4 CMakeFiles/13_demo_OLED_FLOAT.elf.dir/Drivers/STM32F1xx_HAL_Driver/Src/stm32f1xx_hal_i2c.c.obj
 .text.HAL_I2C_Slave_Transmit_IT
                0x00000000       0x8c CMakeFiles/13_demo_OLED_FLOAT.elf.dir/Drivers/STM32F1xx_HAL_Driver/Src/stm32f1xx_hal_i2c.c.obj
 .text.HAL_I2C_Slave_Receive_IT
                0x00000000       0x8c CMakeFiles/13_demo_OLED_FLOAT.elf.dir/Drivers/STM32F1xx_HAL_Driver/Src/stm32f1xx_hal_i2c.c.obj
 .text.HAL_I2C_Master_Transmit_DMA
                0x00000000      0x184 CMakeFiles/13_demo_OLED_FLOAT.elf.dir/Drivers/STM32F1xx_HAL_Driver/Src/stm32f1xx_hal_i2c.c.obj
 .text.HAL_I2C_Master_Receive_DMA
                0x00000000      0x184 CMakeFiles/13_demo_OLED_FLOAT.elf.dir/Drivers/STM32F1xx_HAL_Driver/Src/stm32f1xx_hal_i2c.c.obj
 .text.HAL_I2C_Slave_Transmit_DMA
                0x00000000      0x100 CMakeFiles/13_demo_OLED_FLOAT.elf.dir/Drivers/STM32F1xx_HAL_Driver/Src/stm32f1xx_hal_i2c.c.obj
 .text.HAL_I2C_Slave_Receive_DMA
                0x00000000      0x100 CMakeFiles/13_demo_OLED_FLOAT.elf.dir/Drivers/STM32F1xx_HAL_Driver/Src/stm32f1xx_hal_i2c.c.obj
 .text.HAL_I2C_Mem_Write_IT
                0x00000000       0xe4 CMakeFiles/13_demo_OLED_FLOAT.elf.dir/Drivers/STM32F1xx_HAL_Driver/Src/stm32f1xx_hal_i2c.c.obj
 .text.HAL_I2C_Mem_Read_IT
                0x00000000       0xf4 CMakeFiles/13_demo_OLED_FLOAT.elf.dir/Drivers/STM32F1xx_HAL_Driver/Src/stm32f1xx_hal_i2c.c.obj
 .text.HAL_I2C_Mem_Write_DMA
                0x00000000      0x1c8 CMakeFiles/13_demo_OLED_FLOAT.elf.dir/Drivers/STM32F1xx_HAL_Driver/Src/stm32f1xx_hal_i2c.c.obj
 .text.HAL_I2C_Mem_Read_DMA
                0x00000000      0x208 CMakeFiles/13_demo_OLED_FLOAT.elf.dir/Drivers/STM32F1xx_HAL_Driver/Src/stm32f1xx_hal_i2c.c.obj
 .text.HAL_I2C_IsDeviceReady
                0x00000000      0x194 CMakeFiles/13_demo_OLED_FLOAT.elf.dir/Drivers/STM32F1xx_HAL_Driver/Src/stm32f1xx_hal_i2c.c.obj
 .text.HAL_I2C_Master_Seq_Transmit_IT
                0x00000000      0x100 CMakeFiles/13_demo_OLED_FLOAT.elf.dir/Drivers/STM32F1xx_HAL_Driver/Src/stm32f1xx_hal_i2c.c.obj
 .text.HAL_I2C_Master_Seq_Transmit_DMA
                0x00000000      0x1cc CMakeFiles/13_demo_OLED_FLOAT.elf.dir/Drivers/STM32F1xx_HAL_Driver/Src/stm32f1xx_hal_i2c.c.obj
 .text.HAL_I2C_Master_Seq_Receive_IT
                0x00000000      0x150 CMakeFiles/13_demo_OLED_FLOAT.elf.dir/Drivers/STM32F1xx_HAL_Driver/Src/stm32f1xx_hal_i2c.c.obj
 .text.HAL_I2C_Master_Seq_Receive_DMA
                0x00000000      0x23c CMakeFiles/13_demo_OLED_FLOAT.elf.dir/Drivers/STM32F1xx_HAL_Driver/Src/stm32f1xx_hal_i2c.c.obj
 .text.HAL_I2C_Slave_Seq_Transmit_IT
                0x00000000       0x8e CMakeFiles/13_demo_OLED_FLOAT.elf.dir/Drivers/STM32F1xx_HAL_Driver/Src/stm32f1xx_hal_i2c.c.obj
 .text.HAL_I2C_Slave_Seq_Transmit_DMA
                0x00000000      0x19c CMakeFiles/13_demo_OLED_FLOAT.elf.dir/Drivers/STM32F1xx_HAL_Driver/Src/stm32f1xx_hal_i2c.c.obj
 .text.HAL_I2C_Slave_Seq_Receive_IT
                0x00000000       0x8e CMakeFiles/13_demo_OLED_FLOAT.elf.dir/Drivers/STM32F1xx_HAL_Driver/Src/stm32f1xx_hal_i2c.c.obj
 .text.HAL_I2C_Slave_Seq_Receive_DMA
                0x00000000      0x19c CMakeFiles/13_demo_OLED_FLOAT.elf.dir/Drivers/STM32F1xx_HAL_Driver/Src/stm32f1xx_hal_i2c.c.obj
 .text.HAL_I2C_EnableListen_IT
                0x00000000       0x3e CMakeFiles/13_demo_OLED_FLOAT.elf.dir/Drivers/STM32F1xx_HAL_Driver/Src/stm32f1xx_hal_i2c.c.obj
 .text.HAL_I2C_DisableListen_IT
                0x00000000       0x42 CMakeFiles/13_demo_OLED_FLOAT.elf.dir/Drivers/STM32F1xx_HAL_Driver/Src/stm32f1xx_hal_i2c.c.obj
 .text.HAL_I2C_MasterTxCpltCallback
                0x00000000        0x2 CMakeFiles/13_demo_OLED_FLOAT.elf.dir/Drivers/STM32F1xx_HAL_Driver/Src/stm32f1xx_hal_i2c.c.obj
 .text.HAL_I2C_MasterRxCpltCallback
                0x00000000        0x2 CMakeFiles/13_demo_OLED_FLOAT.elf.dir/Drivers/STM32F1xx_HAL_Driver/Src/stm32f1xx_hal_i2c.c.obj
 .text.HAL_I2C_SlaveTxCpltCallback
                0x00000000        0x2 CMakeFiles/13_demo_OLED_FLOAT.elf.dir/Drivers/STM32F1xx_HAL_Driver/Src/stm32f1xx_hal_i2c.c.obj
 .text.I2C_SlaveTransmit_TXE
                0x00000000       0x4c CMakeFiles/13_demo_OLED_FLOAT.elf.dir/Drivers/STM32F1xx_HAL_Driver/Src/stm32f1xx_hal_i2c.c.obj
 .text.HAL_I2C_SlaveRxCpltCallback
                0x00000000        0x2 CMakeFiles/13_demo_OLED_FLOAT.elf.dir/Drivers/STM32F1xx_HAL_Driver/Src/stm32f1xx_hal_i2c.c.obj
 .text.I2C_SlaveReceive_RXNE
                0x00000000       0x4c CMakeFiles/13_demo_OLED_FLOAT.elf.dir/Drivers/STM32F1xx_HAL_Driver/Src/stm32f1xx_hal_i2c.c.obj
 .text.HAL_I2C_AddrCallback
                0x00000000        0x2 CMakeFiles/13_demo_OLED_FLOAT.elf.dir/Drivers/STM32F1xx_HAL_Driver/Src/stm32f1xx_hal_i2c.c.obj
 .text.I2C_Slave_ADDR
                0x00000000       0x5a CMakeFiles/13_demo_OLED_FLOAT.elf.dir/Drivers/STM32F1xx_HAL_Driver/Src/stm32f1xx_hal_i2c.c.obj
 .text.HAL_I2C_ListenCpltCallback
                0x00000000        0x2 CMakeFiles/13_demo_OLED_FLOAT.elf.dir/Drivers/STM32F1xx_HAL_Driver/Src/stm32f1xx_hal_i2c.c.obj
 .text.I2C_Slave_AF
                0x00000000       0x94 CMakeFiles/13_demo_OLED_FLOAT.elf.dir/Drivers/STM32F1xx_HAL_Driver/Src/stm32f1xx_hal_i2c.c.obj
 .text.HAL_I2C_MemTxCpltCallback
                0x00000000        0x2 CMakeFiles/13_demo_OLED_FLOAT.elf.dir/Drivers/STM32F1xx_HAL_Driver/Src/stm32f1xx_hal_i2c.c.obj
 .text.I2C_MasterTransmit_BTF
                0x00000000       0x9e CMakeFiles/13_demo_OLED_FLOAT.elf.dir/Drivers/STM32F1xx_HAL_Driver/Src/stm32f1xx_hal_i2c.c.obj
 .text.I2C_MemoryTransmit_TXE_BTF
                0x00000000       0xbe CMakeFiles/13_demo_OLED_FLOAT.elf.dir/Drivers/STM32F1xx_HAL_Driver/Src/stm32f1xx_hal_i2c.c.obj
 .text.I2C_MasterTransmit_TXE
                0x00000000       0xd0 CMakeFiles/13_demo_OLED_FLOAT.elf.dir/Drivers/STM32F1xx_HAL_Driver/Src/stm32f1xx_hal_i2c.c.obj
 .text.HAL_I2C_MemRxCpltCallback
                0x00000000        0x2 CMakeFiles/13_demo_OLED_FLOAT.elf.dir/Drivers/STM32F1xx_HAL_Driver/Src/stm32f1xx_hal_i2c.c.obj
 .text.I2C_MasterReceive_BTF
                0x00000000      0x128 CMakeFiles/13_demo_OLED_FLOAT.elf.dir/Drivers/STM32F1xx_HAL_Driver/Src/stm32f1xx_hal_i2c.c.obj
 .text.HAL_I2C_ErrorCallback
                0x00000000        0x2 CMakeFiles/13_demo_OLED_FLOAT.elf.dir/Drivers/STM32F1xx_HAL_Driver/Src/stm32f1xx_hal_i2c.c.obj
 .text.I2C_DMAError
                0x00000000       0x3a CMakeFiles/13_demo_OLED_FLOAT.elf.dir/Drivers/STM32F1xx_HAL_Driver/Src/stm32f1xx_hal_i2c.c.obj
 .text.I2C_DMAXferCplt
                0x00000000      0x122 CMakeFiles/13_demo_OLED_FLOAT.elf.dir/Drivers/STM32F1xx_HAL_Driver/Src/stm32f1xx_hal_i2c.c.obj
 .text.I2C_MasterReceive_RXNE
                0x00000000       0xec CMakeFiles/13_demo_OLED_FLOAT.elf.dir/Drivers/STM32F1xx_HAL_Driver/Src/stm32f1xx_hal_i2c.c.obj
 .text.HAL_I2C_AbortCpltCallback
                0x00000000        0x2 CMakeFiles/13_demo_OLED_FLOAT.elf.dir/Drivers/STM32F1xx_HAL_Driver/Src/stm32f1xx_hal_i2c.c.obj
 .text.I2C_DMAAbort
                0x00000000       0xe4 CMakeFiles/13_demo_OLED_FLOAT.elf.dir/Drivers/STM32F1xx_HAL_Driver/Src/stm32f1xx_hal_i2c.c.obj
 .text.I2C_ITError
                0x00000000      0x174 CMakeFiles/13_demo_OLED_FLOAT.elf.dir/Drivers/STM32F1xx_HAL_Driver/Src/stm32f1xx_hal_i2c.c.obj
 .text.HAL_I2C_Master_Abort_IT
                0x00000000       0x64 CMakeFiles/13_demo_OLED_FLOAT.elf.dir/Drivers/STM32F1xx_HAL_Driver/Src/stm32f1xx_hal_i2c.c.obj
 .text.I2C_Slave_STOPF
                0x00000000      0x18c CMakeFiles/13_demo_OLED_FLOAT.elf.dir/Drivers/STM32F1xx_HAL_Driver/Src/stm32f1xx_hal_i2c.c.obj
 .text.HAL_I2C_EV_IRQHandler
                0x00000000      0x1a0 CMakeFiles/13_demo_OLED_FLOAT.elf.dir/Drivers/STM32F1xx_HAL_Driver/Src/stm32f1xx_hal_i2c.c.obj
 .text.HAL_I2C_ER_IRQHandler
                0x00000000       0xce CMakeFiles/13_demo_OLED_FLOAT.elf.dir/Drivers/STM32F1xx_HAL_Driver/Src/stm32f1xx_hal_i2c.c.obj
 .text.HAL_I2C_GetState
                0x00000000        0x6 CMakeFiles/13_demo_OLED_FLOAT.elf.dir/Drivers/STM32F1xx_HAL_Driver/Src/stm32f1xx_hal_i2c.c.obj
 .text.HAL_I2C_GetMode
                0x00000000        0x6 CMakeFiles/13_demo_OLED_FLOAT.elf.dir/Drivers/STM32F1xx_HAL_Driver/Src/stm32f1xx_hal_i2c.c.obj
 .text.HAL_I2C_GetError
                0x00000000        0x4 CMakeFiles/13_demo_OLED_FLOAT.elf.dir/Drivers/STM32F1xx_HAL_Driver/Src/stm32f1xx_hal_i2c.c.obj
 .text          0x00000000        0x0 CMakeFiles/13_demo_OLED_FLOAT.elf.dir/Drivers/STM32F1xx_HAL_Driver/Src/stm32f1xx_hal_pwr.c.obj
 .data          0x00000000        0x0 CMakeFiles/13_demo_OLED_FLOAT.elf.dir/Drivers/STM32F1xx_HAL_Driver/Src/stm32f1xx_hal_pwr.c.obj
 .bss           0x00000000        0x0 CMakeFiles/13_demo_OLED_FLOAT.elf.dir/Drivers/STM32F1xx_HAL_Driver/Src/stm32f1xx_hal_pwr.c.obj
 .text.PWR_OverloadWfe
                0x00000000        0x6 CMakeFiles/13_demo_OLED_FLOAT.elf.dir/Drivers/STM32F1xx_HAL_Driver/Src/stm32f1xx_hal_pwr.c.obj
 .text.HAL_PWR_DeInit
                0x00000000       0x18 CMakeFiles/13_demo_OLED_FLOAT.elf.dir/Drivers/STM32F1xx_HAL_Driver/Src/stm32f1xx_hal_pwr.c.obj
 .text.HAL_PWR_EnableBkUpAccess
                0x00000000        0xc CMakeFiles/13_demo_OLED_FLOAT.elf.dir/Drivers/STM32F1xx_HAL_Driver/Src/stm32f1xx_hal_pwr.c.obj
 .text.HAL_PWR_DisableBkUpAccess
                0x00000000        0xc CMakeFiles/13_demo_OLED_FLOAT.elf.dir/Drivers/STM32F1xx_HAL_Driver/Src/stm32f1xx_hal_pwr.c.obj
 .text.HAL_PWR_ConfigPVD
                0x00000000       0x84 CMakeFiles/13_demo_OLED_FLOAT.elf.dir/Drivers/STM32F1xx_HAL_Driver/Src/stm32f1xx_hal_pwr.c.obj
 .text.HAL_PWR_EnablePVD
                0x00000000        0xc CMakeFiles/13_demo_OLED_FLOAT.elf.dir/Drivers/STM32F1xx_HAL_Driver/Src/stm32f1xx_hal_pwr.c.obj
 .text.HAL_PWR_DisablePVD
                0x00000000        0xc CMakeFiles/13_demo_OLED_FLOAT.elf.dir/Drivers/STM32F1xx_HAL_Driver/Src/stm32f1xx_hal_pwr.c.obj
 .text.HAL_PWR_EnableWakeUpPin
                0x00000000       0x18 CMakeFiles/13_demo_OLED_FLOAT.elf.dir/Drivers/STM32F1xx_HAL_Driver/Src/stm32f1xx_hal_pwr.c.obj
 .text.HAL_PWR_DisableWakeUpPin
                0x00000000       0x18 CMakeFiles/13_demo_OLED_FLOAT.elf.dir/Drivers/STM32F1xx_HAL_Driver/Src/stm32f1xx_hal_pwr.c.obj
 .text.HAL_PWR_EnterSLEEPMode
                0x00000000       0x20 CMakeFiles/13_demo_OLED_FLOAT.elf.dir/Drivers/STM32F1xx_HAL_Driver/Src/stm32f1xx_hal_pwr.c.obj
 .text.HAL_PWR_EnterSTOPMode
                0x00000000       0x48 CMakeFiles/13_demo_OLED_FLOAT.elf.dir/Drivers/STM32F1xx_HAL_Driver/Src/stm32f1xx_hal_pwr.c.obj
 .text.HAL_PWR_EnterSTANDBYMode
                0x00000000       0x20 CMakeFiles/13_demo_OLED_FLOAT.elf.dir/Drivers/STM32F1xx_HAL_Driver/Src/stm32f1xx_hal_pwr.c.obj
 .text.HAL_PWR_EnableSleepOnExit
                0x00000000       0x10 CMakeFiles/13_demo_OLED_FLOAT.elf.dir/Drivers/STM32F1xx_HAL_Driver/Src/stm32f1xx_hal_pwr.c.obj
 .text.HAL_PWR_DisableSleepOnExit
                0x00000000       0x10 CMakeFiles/13_demo_OLED_FLOAT.elf.dir/Drivers/STM32F1xx_HAL_Driver/Src/stm32f1xx_hal_pwr.c.obj
 .text.HAL_PWR_EnableSEVOnPend
                0x00000000       0x10 CMakeFiles/13_demo_OLED_FLOAT.elf.dir/Drivers/STM32F1xx_HAL_Driver/Src/stm32f1xx_hal_pwr.c.obj
 .text.HAL_PWR_DisableSEVOnPend
                0x00000000       0x10 CMakeFiles/13_demo_OLED_FLOAT.elf.dir/Drivers/STM32F1xx_HAL_Driver/Src/stm32f1xx_hal_pwr.c.obj
 .text.HAL_PWR_PVDCallback
                0x00000000        0x2 CMakeFiles/13_demo_OLED_FLOAT.elf.dir/Drivers/STM32F1xx_HAL_Driver/Src/stm32f1xx_hal_pwr.c.obj
 .text.HAL_PWR_PVD_IRQHandler
                0x00000000       0x20 CMakeFiles/13_demo_OLED_FLOAT.elf.dir/Drivers/STM32F1xx_HAL_Driver/Src/stm32f1xx_hal_pwr.c.obj
 .debug_info    0x00000000      0x77b CMakeFiles/13_demo_OLED_FLOAT.elf.dir/Drivers/STM32F1xx_HAL_Driver/Src/stm32f1xx_hal_pwr.c.obj
 .debug_abbrev  0x00000000      0x204 CMakeFiles/13_demo_OLED_FLOAT.elf.dir/Drivers/STM32F1xx_HAL_Driver/Src/stm32f1xx_hal_pwr.c.obj
 .debug_loc     0x00000000      0x142 CMakeFiles/13_demo_OLED_FLOAT.elf.dir/Drivers/STM32F1xx_HAL_Driver/Src/stm32f1xx_hal_pwr.c.obj
 .debug_aranges
                0x00000000       0xa8 CMakeFiles/13_demo_OLED_FLOAT.elf.dir/Drivers/STM32F1xx_HAL_Driver/Src/stm32f1xx_hal_pwr.c.obj
 .debug_ranges  0x00000000       0x98 CMakeFiles/13_demo_OLED_FLOAT.elf.dir/Drivers/STM32F1xx_HAL_Driver/Src/stm32f1xx_hal_pwr.c.obj
 .debug_line    0x00000000      0x511 CMakeFiles/13_demo_OLED_FLOAT.elf.dir/Drivers/STM32F1xx_HAL_Driver/Src/stm32f1xx_hal_pwr.c.obj
 .debug_str     0x00000000      0x5e5 CMakeFiles/13_demo_OLED_FLOAT.elf.dir/Drivers/STM32F1xx_HAL_Driver/Src/stm32f1xx_hal_pwr.c.obj
 .comment       0x00000000       0x7a CMakeFiles/13_demo_OLED_FLOAT.elf.dir/Drivers/STM32F1xx_HAL_Driver/Src/stm32f1xx_hal_pwr.c.obj
 .debug_frame   0x00000000      0x140 CMakeFiles/13_demo_OLED_FLOAT.elf.dir/Drivers/STM32F1xx_HAL_Driver/Src/stm32f1xx_hal_pwr.c.obj
 .ARM.attributes
                0x00000000       0x2d CMakeFiles/13_demo_OLED_FLOAT.elf.dir/Drivers/STM32F1xx_HAL_Driver/Src/stm32f1xx_hal_pwr.c.obj
 .text          0x00000000        0x0 CMakeFiles/13_demo_OLED_FLOAT.elf.dir/Drivers/STM32F1xx_HAL_Driver/Src/stm32f1xx_hal_rcc.c.obj
 .data          0x00000000        0x0 CMakeFiles/13_demo_OLED_FLOAT.elf.dir/Drivers/STM32F1xx_HAL_Driver/Src/stm32f1xx_hal_rcc.c.obj
 .bss           0x00000000        0x0 CMakeFiles/13_demo_OLED_FLOAT.elf.dir/Drivers/STM32F1xx_HAL_Driver/Src/stm32f1xx_hal_rcc.c.obj
 .text.HAL_RCC_DeInit
                0x00000000       0xf4 CMakeFiles/13_demo_OLED_FLOAT.elf.dir/Drivers/STM32F1xx_HAL_Driver/Src/stm32f1xx_hal_rcc.c.obj
 .text.HAL_RCC_MCOConfig
                0x00000000       0x4c CMakeFiles/13_demo_OLED_FLOAT.elf.dir/Drivers/STM32F1xx_HAL_Driver/Src/stm32f1xx_hal_rcc.c.obj
 .text.HAL_RCC_EnableCSS
                0x00000000        0xc CMakeFiles/13_demo_OLED_FLOAT.elf.dir/Drivers/STM32F1xx_HAL_Driver/Src/stm32f1xx_hal_rcc.c.obj
 .text.HAL_RCC_DisableCSS
                0x00000000        0xc CMakeFiles/13_demo_OLED_FLOAT.elf.dir/Drivers/STM32F1xx_HAL_Driver/Src/stm32f1xx_hal_rcc.c.obj
 .text.HAL_RCC_GetOscConfig
                0x00000000       0xb4 CMakeFiles/13_demo_OLED_FLOAT.elf.dir/Drivers/STM32F1xx_HAL_Driver/Src/stm32f1xx_hal_rcc.c.obj
 .text.HAL_RCC_GetClockConfig
                0x00000000       0x3c CMakeFiles/13_demo_OLED_FLOAT.elf.dir/Drivers/STM32F1xx_HAL_Driver/Src/stm32f1xx_hal_rcc.c.obj
 .text.HAL_RCC_CSSCallback
                0x00000000        0x2 CMakeFiles/13_demo_OLED_FLOAT.elf.dir/Drivers/STM32F1xx_HAL_Driver/Src/stm32f1xx_hal_rcc.c.obj
 .text.HAL_RCC_NMI_IRQHandler
                0x00000000       0x24 CMakeFiles/13_demo_OLED_FLOAT.elf.dir/Drivers/STM32F1xx_HAL_Driver/Src/stm32f1xx_hal_rcc.c.obj
 .text          0x00000000        0x0 CMakeFiles/13_demo_OLED_FLOAT.elf.dir/Drivers/STM32F1xx_HAL_Driver/Src/stm32f1xx_hal_rcc_ex.c.obj
 .data          0x00000000        0x0 CMakeFiles/13_demo_OLED_FLOAT.elf.dir/Drivers/STM32F1xx_HAL_Driver/Src/stm32f1xx_hal_rcc_ex.c.obj
 .bss           0x00000000        0x0 CMakeFiles/13_demo_OLED_FLOAT.elf.dir/Drivers/STM32F1xx_HAL_Driver/Src/stm32f1xx_hal_rcc_ex.c.obj
 .text.HAL_RCCEx_PeriphCLKConfig
                0x00000000      0x114 CMakeFiles/13_demo_OLED_FLOAT.elf.dir/Drivers/STM32F1xx_HAL_Driver/Src/stm32f1xx_hal_rcc_ex.c.obj
 .text.HAL_RCCEx_GetPeriphCLKConfig
                0x00000000       0x2c CMakeFiles/13_demo_OLED_FLOAT.elf.dir/Drivers/STM32F1xx_HAL_Driver/Src/stm32f1xx_hal_rcc_ex.c.obj
 .rodata.HAL_RCCEx_GetPeriphCLKFreq.str1.4
                0x00000000       0x11 CMakeFiles/13_demo_OLED_FLOAT.elf.dir/Drivers/STM32F1xx_HAL_Driver/Src/stm32f1xx_hal_rcc_ex.c.obj
 .text.HAL_RCCEx_GetPeriphCLKFreq
                0x00000000       0xf4 CMakeFiles/13_demo_OLED_FLOAT.elf.dir/Drivers/STM32F1xx_HAL_Driver/Src/stm32f1xx_hal_rcc_ex.c.obj
 .debug_info    0x00000000      0x4fd CMakeFiles/13_demo_OLED_FLOAT.elf.dir/Drivers/STM32F1xx_HAL_Driver/Src/stm32f1xx_hal_rcc_ex.c.obj
 .debug_abbrev  0x00000000      0x1f8 CMakeFiles/13_demo_OLED_FLOAT.elf.dir/Drivers/STM32F1xx_HAL_Driver/Src/stm32f1xx_hal_rcc_ex.c.obj
 .debug_loc     0x00000000      0x38e CMakeFiles/13_demo_OLED_FLOAT.elf.dir/Drivers/STM32F1xx_HAL_Driver/Src/stm32f1xx_hal_rcc_ex.c.obj
 .debug_aranges
                0x00000000       0x30 CMakeFiles/13_demo_OLED_FLOAT.elf.dir/Drivers/STM32F1xx_HAL_Driver/Src/stm32f1xx_hal_rcc_ex.c.obj
 .debug_ranges  0x00000000       0x38 CMakeFiles/13_demo_OLED_FLOAT.elf.dir/Drivers/STM32F1xx_HAL_Driver/Src/stm32f1xx_hal_rcc_ex.c.obj
 .debug_line    0x00000000      0x560 CMakeFiles/13_demo_OLED_FLOAT.elf.dir/Drivers/STM32F1xx_HAL_Driver/Src/stm32f1xx_hal_rcc_ex.c.obj
 .debug_str     0x00000000      0x51d CMakeFiles/13_demo_OLED_FLOAT.elf.dir/Drivers/STM32F1xx_HAL_Driver/Src/stm32f1xx_hal_rcc_ex.c.obj
 .comment       0x00000000       0x7a CMakeFiles/13_demo_OLED_FLOAT.elf.dir/Drivers/STM32F1xx_HAL_Driver/Src/stm32f1xx_hal_rcc_ex.c.obj
 .debug_frame   0x00000000       0x64 CMakeFiles/13_demo_OLED_FLOAT.elf.dir/Drivers/STM32F1xx_HAL_Driver/Src/stm32f1xx_hal_rcc_ex.c.obj
 .ARM.attributes
                0x00000000       0x2d CMakeFiles/13_demo_OLED_FLOAT.elf.dir/Drivers/STM32F1xx_HAL_Driver/Src/stm32f1xx_hal_rcc_ex.c.obj
 .text          0x00000000        0x0 CMakeFiles/13_demo_OLED_FLOAT.elf.dir/Drivers/STM32F1xx_HAL_Driver/Src/stm32f1xx_hal_tim.c.obj
 .data          0x00000000        0x0 CMakeFiles/13_demo_OLED_FLOAT.elf.dir/Drivers/STM32F1xx_HAL_Driver/Src/stm32f1xx_hal_tim.c.obj
 .bss           0x00000000        0x0 CMakeFiles/13_demo_OLED_FLOAT.elf.dir/Drivers/STM32F1xx_HAL_Driver/Src/stm32f1xx_hal_tim.c.obj
 .debug_info    0x00000000      0x174 CMakeFiles/13_demo_OLED_FLOAT.elf.dir/Drivers/STM32F1xx_HAL_Driver/Src/stm32f1xx_hal_tim.c.obj
 .debug_abbrev  0x00000000       0x97 CMakeFiles/13_demo_OLED_FLOAT.elf.dir/Drivers/STM32F1xx_HAL_Driver/Src/stm32f1xx_hal_tim.c.obj
 .debug_aranges
                0x00000000       0x18 CMakeFiles/13_demo_OLED_FLOAT.elf.dir/Drivers/STM32F1xx_HAL_Driver/Src/stm32f1xx_hal_tim.c.obj
 .debug_line    0x00000000      0x1e6 CMakeFiles/13_demo_OLED_FLOAT.elf.dir/Drivers/STM32F1xx_HAL_Driver/Src/stm32f1xx_hal_tim.c.obj
 .debug_str     0x00000000      0x313 CMakeFiles/13_demo_OLED_FLOAT.elf.dir/Drivers/STM32F1xx_HAL_Driver/Src/stm32f1xx_hal_tim.c.obj
 .comment       0x00000000       0x7a CMakeFiles/13_demo_OLED_FLOAT.elf.dir/Drivers/STM32F1xx_HAL_Driver/Src/stm32f1xx_hal_tim.c.obj
 .ARM.attributes
                0x00000000       0x33 CMakeFiles/13_demo_OLED_FLOAT.elf.dir/Drivers/STM32F1xx_HAL_Driver/Src/stm32f1xx_hal_tim.c.obj
 .text          0x00000000        0x0 CMakeFiles/13_demo_OLED_FLOAT.elf.dir/Drivers/STM32F1xx_HAL_Driver/Src/stm32f1xx_hal_tim_ex.c.obj
 .data          0x00000000        0x0 CMakeFiles/13_demo_OLED_FLOAT.elf.dir/Drivers/STM32F1xx_HAL_Driver/Src/stm32f1xx_hal_tim_ex.c.obj
 .bss           0x00000000        0x0 CMakeFiles/13_demo_OLED_FLOAT.elf.dir/Drivers/STM32F1xx_HAL_Driver/Src/stm32f1xx_hal_tim_ex.c.obj
 .debug_info    0x00000000      0x174 CMakeFiles/13_demo_OLED_FLOAT.elf.dir/Drivers/STM32F1xx_HAL_Driver/Src/stm32f1xx_hal_tim_ex.c.obj
 .debug_abbrev  0x00000000       0x97 CMakeFiles/13_demo_OLED_FLOAT.elf.dir/Drivers/STM32F1xx_HAL_Driver/Src/stm32f1xx_hal_tim_ex.c.obj
 .debug_aranges
                0x00000000       0x18 CMakeFiles/13_demo_OLED_FLOAT.elf.dir/Drivers/STM32F1xx_HAL_Driver/Src/stm32f1xx_hal_tim_ex.c.obj
 .debug_line    0x00000000      0x1e6 CMakeFiles/13_demo_OLED_FLOAT.elf.dir/Drivers/STM32F1xx_HAL_Driver/Src/stm32f1xx_hal_tim_ex.c.obj
 .debug_str     0x00000000      0x316 CMakeFiles/13_demo_OLED_FLOAT.elf.dir/Drivers/STM32F1xx_HAL_Driver/Src/stm32f1xx_hal_tim_ex.c.obj
 .comment       0x00000000       0x7a CMakeFiles/13_demo_OLED_FLOAT.elf.dir/Drivers/STM32F1xx_HAL_Driver/Src/stm32f1xx_hal_tim_ex.c.obj
 .ARM.attributes
                0x00000000       0x33 CMakeFiles/13_demo_OLED_FLOAT.elf.dir/Drivers/STM32F1xx_HAL_Driver/Src/stm32f1xx_hal_tim_ex.c.obj
 .text          0x00000000        0x0 CMakeFiles/13_demo_OLED_FLOAT.elf.dir/Drivers/STM32F1xx_HAL_Driver/Src/stm32f1xx_hal_uart.c.obj
 .data          0x00000000        0x0 CMakeFiles/13_demo_OLED_FLOAT.elf.dir/Drivers/STM32F1xx_HAL_Driver/Src/stm32f1xx_hal_uart.c.obj
 .bss           0x00000000        0x0 CMakeFiles/13_demo_OLED_FLOAT.elf.dir/Drivers/STM32F1xx_HAL_Driver/Src/stm32f1xx_hal_uart.c.obj
 .text.UART_EndTxTransfer
                0x00000000       0x12 CMakeFiles/13_demo_OLED_FLOAT.elf.dir/Drivers/STM32F1xx_HAL_Driver/Src/stm32f1xx_hal_uart.c.obj
 .text.UART_EndRxTransfer
                0x00000000       0x32 CMakeFiles/13_demo_OLED_FLOAT.elf.dir/Drivers/STM32F1xx_HAL_Driver/Src/stm32f1xx_hal_uart.c.obj
 .text.UART_Transmit_IT
                0x00000000       0x60 CMakeFiles/13_demo_OLED_FLOAT.elf.dir/Drivers/STM32F1xx_HAL_Driver/Src/stm32f1xx_hal_uart.c.obj
 .text.HAL_UART_MspInit
                0x00000000        0x2 CMakeFiles/13_demo_OLED_FLOAT.elf.dir/Drivers/STM32F1xx_HAL_Driver/Src/stm32f1xx_hal_uart.c.obj
 .text.HAL_HalfDuplex_Init
                0x00000000       0x6a CMakeFiles/13_demo_OLED_FLOAT.elf.dir/Drivers/STM32F1xx_HAL_Driver/Src/stm32f1xx_hal_uart.c.obj
 .text.HAL_LIN_Init
                0x00000000       0x80 CMakeFiles/13_demo_OLED_FLOAT.elf.dir/Drivers/STM32F1xx_HAL_Driver/Src/stm32f1xx_hal_uart.c.obj
 .text.HAL_MultiProcessor_Init
                0x00000000       0x8a CMakeFiles/13_demo_OLED_FLOAT.elf.dir/Drivers/STM32F1xx_HAL_Driver/Src/stm32f1xx_hal_uart.c.obj
 .text.HAL_UART_MspDeInit
                0x00000000        0x2 CMakeFiles/13_demo_OLED_FLOAT.elf.dir/Drivers/STM32F1xx_HAL_Driver/Src/stm32f1xx_hal_uart.c.obj
 .text.HAL_UART_DeInit
                0x00000000       0x32 CMakeFiles/13_demo_OLED_FLOAT.elf.dir/Drivers/STM32F1xx_HAL_Driver/Src/stm32f1xx_hal_uart.c.obj
 .text.HAL_UART_Receive
                0x00000000       0xe4 CMakeFiles/13_demo_OLED_FLOAT.elf.dir/Drivers/STM32F1xx_HAL_Driver/Src/stm32f1xx_hal_uart.c.obj
 .text.HAL_UART_Transmit_IT
                0x00000000       0x48 CMakeFiles/13_demo_OLED_FLOAT.elf.dir/Drivers/STM32F1xx_HAL_Driver/Src/stm32f1xx_hal_uart.c.obj
 .text.HAL_UART_Transmit_DMA
                0x00000000       0x8c CMakeFiles/13_demo_OLED_FLOAT.elf.dir/Drivers/STM32F1xx_HAL_Driver/Src/stm32f1xx_hal_uart.c.obj
 .text.HAL_UART_DMAPause
                0x00000000       0x70 CMakeFiles/13_demo_OLED_FLOAT.elf.dir/Drivers/STM32F1xx_HAL_Driver/Src/stm32f1xx_hal_uart.c.obj
 .text.HAL_UART_DMAResume
                0x00000000       0x76 CMakeFiles/13_demo_OLED_FLOAT.elf.dir/Drivers/STM32F1xx_HAL_Driver/Src/stm32f1xx_hal_uart.c.obj
 .text.HAL_UART_DMAStop
                0x00000000       0x64 CMakeFiles/13_demo_OLED_FLOAT.elf.dir/Drivers/STM32F1xx_HAL_Driver/Src/stm32f1xx_hal_uart.c.obj
 .text.HAL_UARTEx_ReceiveToIdle
                0x00000000      0x138 CMakeFiles/13_demo_OLED_FLOAT.elf.dir/Drivers/STM32F1xx_HAL_Driver/Src/stm32f1xx_hal_uart.c.obj
 .text.HAL_UART_Abort
                0x00000000       0xa8 CMakeFiles/13_demo_OLED_FLOAT.elf.dir/Drivers/STM32F1xx_HAL_Driver/Src/stm32f1xx_hal_uart.c.obj
 .text.HAL_UART_AbortTransmit
                0x00000000       0x4e CMakeFiles/13_demo_OLED_FLOAT.elf.dir/Drivers/STM32F1xx_HAL_Driver/Src/stm32f1xx_hal_uart.c.obj
 .text.HAL_UART_AbortReceive
                0x00000000       0x6c CMakeFiles/13_demo_OLED_FLOAT.elf.dir/Drivers/STM32F1xx_HAL_Driver/Src/stm32f1xx_hal_uart.c.obj
 .text.HAL_UART_TxCpltCallback
                0x00000000        0x2 CMakeFiles/13_demo_OLED_FLOAT.elf.dir/Drivers/STM32F1xx_HAL_Driver/Src/stm32f1xx_hal_uart.c.obj
 .text.UART_DMATransmitCplt
                0x00000000       0x30 CMakeFiles/13_demo_OLED_FLOAT.elf.dir/Drivers/STM32F1xx_HAL_Driver/Src/stm32f1xx_hal_uart.c.obj
 .text.UART_EndTransmit_IT
                0x00000000       0x1a CMakeFiles/13_demo_OLED_FLOAT.elf.dir/Drivers/STM32F1xx_HAL_Driver/Src/stm32f1xx_hal_uart.c.obj
 .text.HAL_UART_TxHalfCpltCallback
                0x00000000        0x2 CMakeFiles/13_demo_OLED_FLOAT.elf.dir/Drivers/STM32F1xx_HAL_Driver/Src/stm32f1xx_hal_uart.c.obj
 .text.UART_DMATxHalfCplt
                0x00000000        0xa CMakeFiles/13_demo_OLED_FLOAT.elf.dir/Drivers/STM32F1xx_HAL_Driver/Src/stm32f1xx_hal_uart.c.obj
 .text.HAL_UART_RxCpltCallback
                0x00000000        0x2 CMakeFiles/13_demo_OLED_FLOAT.elf.dir/Drivers/STM32F1xx_HAL_Driver/Src/stm32f1xx_hal_uart.c.obj
 .text.HAL_UART_RxHalfCpltCallback
                0x00000000        0x2 CMakeFiles/13_demo_OLED_FLOAT.elf.dir/Drivers/STM32F1xx_HAL_Driver/Src/stm32f1xx_hal_uart.c.obj
 .text.HAL_UART_ErrorCallback
                0x00000000        0x2 CMakeFiles/13_demo_OLED_FLOAT.elf.dir/Drivers/STM32F1xx_HAL_Driver/Src/stm32f1xx_hal_uart.c.obj
 .text.UART_DMAError
                0x00000000       0x58 CMakeFiles/13_demo_OLED_FLOAT.elf.dir/Drivers/STM32F1xx_HAL_Driver/Src/stm32f1xx_hal_uart.c.obj
 .text.UART_DMAAbortOnError
                0x00000000       0x10 CMakeFiles/13_demo_OLED_FLOAT.elf.dir/Drivers/STM32F1xx_HAL_Driver/Src/stm32f1xx_hal_uart.c.obj
 .text.HAL_UART_AbortCpltCallback
                0x00000000        0x2 CMakeFiles/13_demo_OLED_FLOAT.elf.dir/Drivers/STM32F1xx_HAL_Driver/Src/stm32f1xx_hal_uart.c.obj
 .text.HAL_UART_Abort_IT
                0x00000000       0xdc CMakeFiles/13_demo_OLED_FLOAT.elf.dir/Drivers/STM32F1xx_HAL_Driver/Src/stm32f1xx_hal_uart.c.obj
 .text.UART_DMARxAbortCallback
                0x00000000       0x2c CMakeFiles/13_demo_OLED_FLOAT.elf.dir/Drivers/STM32F1xx_HAL_Driver/Src/stm32f1xx_hal_uart.c.obj
 .text.UART_DMATxAbortCallback
                0x00000000       0x2c CMakeFiles/13_demo_OLED_FLOAT.elf.dir/Drivers/STM32F1xx_HAL_Driver/Src/stm32f1xx_hal_uart.c.obj
 .text.HAL_UART_AbortTransmitCpltCallback
                0x00000000        0x2 CMakeFiles/13_demo_OLED_FLOAT.elf.dir/Drivers/STM32F1xx_HAL_Driver/Src/stm32f1xx_hal_uart.c.obj
 .text.HAL_UART_AbortTransmit_IT
                0x00000000       0x60 CMakeFiles/13_demo_OLED_FLOAT.elf.dir/Drivers/STM32F1xx_HAL_Driver/Src/stm32f1xx_hal_uart.c.obj
 .text.UART_DMATxOnlyAbortCallback
                0x00000000       0x14 CMakeFiles/13_demo_OLED_FLOAT.elf.dir/Drivers/STM32F1xx_HAL_Driver/Src/stm32f1xx_hal_uart.c.obj
 .text.HAL_UART_AbortReceiveCpltCallback
                0x00000000        0x2 CMakeFiles/13_demo_OLED_FLOAT.elf.dir/Drivers/STM32F1xx_HAL_Driver/Src/stm32f1xx_hal_uart.c.obj
 .text.HAL_UART_AbortReceive_IT
                0x00000000       0x84 CMakeFiles/13_demo_OLED_FLOAT.elf.dir/Drivers/STM32F1xx_HAL_Driver/Src/stm32f1xx_hal_uart.c.obj
 .text.UART_DMARxOnlyAbortCallback
                0x00000000       0x16 CMakeFiles/13_demo_OLED_FLOAT.elf.dir/Drivers/STM32F1xx_HAL_Driver/Src/stm32f1xx_hal_uart.c.obj
 .text.HAL_UARTEx_RxEventCallback
                0x00000000        0x2 CMakeFiles/13_demo_OLED_FLOAT.elf.dir/Drivers/STM32F1xx_HAL_Driver/Src/stm32f1xx_hal_uart.c.obj
 .text.UART_Receive_IT
                0x00000000       0xd4 CMakeFiles/13_demo_OLED_FLOAT.elf.dir/Drivers/STM32F1xx_HAL_Driver/Src/stm32f1xx_hal_uart.c.obj
 .text.HAL_UART_IRQHandler
                0x00000000      0x204 CMakeFiles/13_demo_OLED_FLOAT.elf.dir/Drivers/STM32F1xx_HAL_Driver/Src/stm32f1xx_hal_uart.c.obj
 .text.UART_DMARxHalfCplt
                0x00000000       0x1a CMakeFiles/13_demo_OLED_FLOAT.elf.dir/Drivers/STM32F1xx_HAL_Driver/Src/stm32f1xx_hal_uart.c.obj
 .text.UART_DMAReceiveCplt
                0x00000000       0x5e CMakeFiles/13_demo_OLED_FLOAT.elf.dir/Drivers/STM32F1xx_HAL_Driver/Src/stm32f1xx_hal_uart.c.obj
 .text.HAL_LIN_SendBreak
                0x00000000       0x32 CMakeFiles/13_demo_OLED_FLOAT.elf.dir/Drivers/STM32F1xx_HAL_Driver/Src/stm32f1xx_hal_uart.c.obj
 .text.HAL_MultiProcessor_EnterMuteMode
                0x00000000       0x32 CMakeFiles/13_demo_OLED_FLOAT.elf.dir/Drivers/STM32F1xx_HAL_Driver/Src/stm32f1xx_hal_uart.c.obj
 .text.HAL_MultiProcessor_ExitMuteMode
                0x00000000       0x32 CMakeFiles/13_demo_OLED_FLOAT.elf.dir/Drivers/STM32F1xx_HAL_Driver/Src/stm32f1xx_hal_uart.c.obj
 .text.HAL_HalfDuplex_EnableTransmitter
                0x00000000       0x36 CMakeFiles/13_demo_OLED_FLOAT.elf.dir/Drivers/STM32F1xx_HAL_Driver/Src/stm32f1xx_hal_uart.c.obj
 .text.HAL_HalfDuplex_EnableReceiver
                0x00000000       0x36 CMakeFiles/13_demo_OLED_FLOAT.elf.dir/Drivers/STM32F1xx_HAL_Driver/Src/stm32f1xx_hal_uart.c.obj
 .text.HAL_UART_GetState
                0x00000000        0xc CMakeFiles/13_demo_OLED_FLOAT.elf.dir/Drivers/STM32F1xx_HAL_Driver/Src/stm32f1xx_hal_uart.c.obj
 .text.HAL_UART_GetError
                0x00000000        0x4 CMakeFiles/13_demo_OLED_FLOAT.elf.dir/Drivers/STM32F1xx_HAL_Driver/Src/stm32f1xx_hal_uart.c.obj
 .text.UART_Start_Receive_IT
                0x00000000       0x36 CMakeFiles/13_demo_OLED_FLOAT.elf.dir/Drivers/STM32F1xx_HAL_Driver/Src/stm32f1xx_hal_uart.c.obj
 .text.HAL_UART_Receive_IT
                0x00000000       0x38 CMakeFiles/13_demo_OLED_FLOAT.elf.dir/Drivers/STM32F1xx_HAL_Driver/Src/stm32f1xx_hal_uart.c.obj
 .text.HAL_UARTEx_ReceiveToIdle_IT
                0x00000000       0x60 CMakeFiles/13_demo_OLED_FLOAT.elf.dir/Drivers/STM32F1xx_HAL_Driver/Src/stm32f1xx_hal_uart.c.obj
 .text.UART_Start_Receive_DMA
                0x00000000       0x78 CMakeFiles/13_demo_OLED_FLOAT.elf.dir/Drivers/STM32F1xx_HAL_Driver/Src/stm32f1xx_hal_uart.c.obj
 .text.HAL_UART_Receive_DMA
                0x00000000       0x38 CMakeFiles/13_demo_OLED_FLOAT.elf.dir/Drivers/STM32F1xx_HAL_Driver/Src/stm32f1xx_hal_uart.c.obj
 .text.HAL_UARTEx_ReceiveToIdle_DMA
                0x00000000       0x60 CMakeFiles/13_demo_OLED_FLOAT.elf.dir/Drivers/STM32F1xx_HAL_Driver/Src/stm32f1xx_hal_uart.c.obj
 .text          0x00000000       0x14 CMakeFiles/13_demo_OLED_FLOAT.elf.dir/startup/startup_stm32f103xb.s.obj
 .data          0x00000000        0x0 CMakeFiles/13_demo_OLED_FLOAT.elf.dir/startup/startup_stm32f103xb.s.obj
 .bss           0x00000000        0x0 CMakeFiles/13_demo_OLED_FLOAT.elf.dir/startup/startup_stm32f103xb.s.obj
 .text          0x00000000      0x254 d:/environment/gcc-arm-none-eabi/bin/../lib/gcc/arm-none-eabi/9.2.1/thumb/v7-m/nofp\libgcc.a(_arm_muldf3.o)
 .data          0x00000000        0x0 d:/environment/gcc-arm-none-eabi/bin/../lib/gcc/arm-none-eabi/9.2.1/thumb/v7-m/nofp\libgcc.a(_arm_muldf3.o)
 .bss           0x00000000        0x0 d:/environment/gcc-arm-none-eabi/bin/../lib/gcc/arm-none-eabi/9.2.1/thumb/v7-m/nofp\libgcc.a(_arm_muldf3.o)
 .debug_frame   0x00000000       0x30 d:/environment/gcc-arm-none-eabi/bin/../lib/gcc/arm-none-eabi/9.2.1/thumb/v7-m/nofp\libgcc.a(_arm_muldf3.o)
 .ARM.attributes
                0x00000000       0x1d d:/environment/gcc-arm-none-eabi/bin/../lib/gcc/arm-none-eabi/9.2.1/thumb/v7-m/nofp\libgcc.a(_arm_muldf3.o)
 .text          0x00000000      0x168 d:/environment/gcc-arm-none-eabi/bin/../lib/gcc/arm-none-eabi/9.2.1/thumb/v7-m/nofp\libgcc.a(_arm_mulsf3.o)
 .data          0x00000000        0x0 d:/environment/gcc-arm-none-eabi/bin/../lib/gcc/arm-none-eabi/9.2.1/thumb/v7-m/nofp\libgcc.a(_arm_mulsf3.o)
 .bss           0x00000000        0x0 d:/environment/gcc-arm-none-eabi/bin/../lib/gcc/arm-none-eabi/9.2.1/thumb/v7-m/nofp\libgcc.a(_arm_mulsf3.o)
 .debug_frame   0x00000000       0x24 d:/environment/gcc-arm-none-eabi/bin/../lib/gcc/arm-none-eabi/9.2.1/thumb/v7-m/nofp\libgcc.a(_arm_mulsf3.o)
 .ARM.attributes
                0x00000000       0x1d d:/environment/gcc-arm-none-eabi/bin/../lib/gcc/arm-none-eabi/9.2.1/thumb/v7-m/nofp\libgcc.a(_arm_mulsf3.o)
 .data          0x00000000        0x0 d:/environment/gcc-arm-none-eabi/bin/../lib/gcc/arm-none-eabi/9.2.1/thumb/v7-m/nofp\libgcc.a(_arm_addsubdf3.o)
 .bss           0x00000000        0x0 d:/environment/gcc-arm-none-eabi/bin/../lib/gcc/arm-none-eabi/9.2.1/thumb/v7-m/nofp\libgcc.a(_arm_addsubdf3.o)
 .data          0x00000000        0x0 d:/environment/gcc-arm-none-eabi/bin/../lib/gcc/arm-none-eabi/9.2.1/thumb/v7-m/nofp\libgcc.a(_arm_truncdfsf2.o)
 .bss           0x00000000        0x0 d:/environment/gcc-arm-none-eabi/bin/../lib/gcc/arm-none-eabi/9.2.1/thumb/v7-m/nofp\libgcc.a(_arm_truncdfsf2.o)
 .data          0x00000000        0x0 d:/environment/gcc-arm-none-eabi/bin/../lib/gcc/arm-none-eabi/9.2.1/thumb/v7-m/nofp\libgcc.a(_arm_addsubsf3.o)
 .bss           0x00000000        0x0 d:/environment/gcc-arm-none-eabi/bin/../lib/gcc/arm-none-eabi/9.2.1/thumb/v7-m/nofp\libgcc.a(_arm_addsubsf3.o)
 .data          0x00000000        0x0 d:/environment/gcc-arm-none-eabi/bin/../lib/gcc/arm-none-eabi/9.2.1/thumb/v7-m/nofp\libgcc.a(_arm_muldivsf3.o)
 .bss           0x00000000        0x0 d:/environment/gcc-arm-none-eabi/bin/../lib/gcc/arm-none-eabi/9.2.1/thumb/v7-m/nofp\libgcc.a(_arm_muldivsf3.o)
 .data          0x00000000        0x0 d:/environment/gcc-arm-none-eabi/bin/../lib/gcc/arm-none-eabi/9.2.1/thumb/v7-m/nofp\libgcc.a(_arm_cmpsf2.o)
 .bss           0x00000000        0x0 d:/environment/gcc-arm-none-eabi/bin/../lib/gcc/arm-none-eabi/9.2.1/thumb/v7-m/nofp\libgcc.a(_arm_cmpsf2.o)
 .data          0x00000000        0x0 d:/environment/gcc-arm-none-eabi/bin/../lib/gcc/arm-none-eabi/9.2.1/thumb/v7-m/nofp\libgcc.a(_arm_fixsfsi.o)
 .bss           0x00000000        0x0 d:/environment/gcc-arm-none-eabi/bin/../lib/gcc/arm-none-eabi/9.2.1/thumb/v7-m/nofp\libgcc.a(_arm_fixsfsi.o)
 .data          0x00000000        0x0 d:/environment/gcc-arm-none-eabi/bin/../lib/gcc/arm-none-eabi/9.2.1/thumb/v7-m/nofp\libgcc.a(_arm_fixunssfsi.o)
 .bss           0x00000000        0x0 d:/environment/gcc-arm-none-eabi/bin/../lib/gcc/arm-none-eabi/9.2.1/thumb/v7-m/nofp\libgcc.a(_arm_fixunssfsi.o)
 .data          0x00000000        0x0 d:/environment/gcc-arm-none-eabi/bin/../lib/gcc/arm-none-eabi/9.2.1/thumb/v7-m/nofp\libgcc.a(_aeabi_ldivmod.o)
 .bss           0x00000000        0x0 d:/environment/gcc-arm-none-eabi/bin/../lib/gcc/arm-none-eabi/9.2.1/thumb/v7-m/nofp\libgcc.a(_aeabi_ldivmod.o)
 .data          0x00000000        0x0 d:/environment/gcc-arm-none-eabi/bin/../lib/gcc/arm-none-eabi/9.2.1/thumb/v7-m/nofp\libgcc.a(_udivmoddi4.o)
 .bss           0x00000000        0x0 d:/environment/gcc-arm-none-eabi/bin/../lib/gcc/arm-none-eabi/9.2.1/thumb/v7-m/nofp\libgcc.a(_udivmoddi4.o)
 .ARM.extab     0x00000000        0x0 d:/environment/gcc-arm-none-eabi/bin/../lib/gcc/arm-none-eabi/9.2.1/thumb/v7-m/nofp\libgcc.a(_udivmoddi4.o)
 .data          0x00000000        0x0 d:/environment/gcc-arm-none-eabi/bin/../lib/gcc/arm-none-eabi/9.2.1/thumb/v7-m/nofp\libgcc.a(_dvmd_tls.o)
 .bss           0x00000000        0x0 d:/environment/gcc-arm-none-eabi/bin/../lib/gcc/arm-none-eabi/9.2.1/thumb/v7-m/nofp\libgcc.a(_dvmd_tls.o)
 .text          0x00000000        0x0 d:/environment/gcc-arm-none-eabi/bin/../lib/gcc/arm-none-eabi/9.2.1/../../../../arm-none-eabi/lib/thumb/v7-m/nofp\libg.a(lib_a-errno.o)
 .data          0x00000000        0x0 d:/environment/gcc-arm-none-eabi/bin/../lib/gcc/arm-none-eabi/9.2.1/../../../../arm-none-eabi/lib/thumb/v7-m/nofp\libg.a(lib_a-errno.o)
 .bss           0x00000000        0x0 d:/environment/gcc-arm-none-eabi/bin/../lib/gcc/arm-none-eabi/9.2.1/../../../../arm-none-eabi/lib/thumb/v7-m/nofp\libg.a(lib_a-errno.o)
 .text          0x00000000        0x0 d:/environment/gcc-arm-none-eabi/bin/../lib/gcc/arm-none-eabi/9.2.1/../../../../arm-none-eabi/lib/thumb/v7-m/nofp\libg.a(lib_a-exit.o)
 .data          0x00000000        0x0 d:/environment/gcc-arm-none-eabi/bin/../lib/gcc/arm-none-eabi/9.2.1/../../../../arm-none-eabi/lib/thumb/v7-m/nofp\libg.a(lib_a-exit.o)
 .bss           0x00000000        0x0 d:/environment/gcc-arm-none-eabi/bin/../lib/gcc/arm-none-eabi/9.2.1/../../../../arm-none-eabi/lib/thumb/v7-m/nofp\libg.a(lib_a-exit.o)
 .text.exit     0x00000000       0x20 d:/environment/gcc-arm-none-eabi/bin/../lib/gcc/arm-none-eabi/9.2.1/../../../../arm-none-eabi/lib/thumb/v7-m/nofp\libg.a(lib_a-exit.o)
 .debug_frame   0x00000000       0x28 d:/environment/gcc-arm-none-eabi/bin/../lib/gcc/arm-none-eabi/9.2.1/../../../../arm-none-eabi/lib/thumb/v7-m/nofp\libg.a(lib_a-exit.o)
 .ARM.attributes
                0x00000000       0x2d d:/environment/gcc-arm-none-eabi/bin/../lib/gcc/arm-none-eabi/9.2.1/../../../../arm-none-eabi/lib/thumb/v7-m/nofp\libg.a(lib_a-exit.o)
 .text          0x00000000        0x0 d:/environment/gcc-arm-none-eabi/bin/../lib/gcc/arm-none-eabi/9.2.1/../../../../arm-none-eabi/lib/thumb/v7-m/nofp\libg.a(lib_a-impure.o)
 .data          0x00000000        0x0 d:/environment/gcc-arm-none-eabi/bin/../lib/gcc/arm-none-eabi/9.2.1/../../../../arm-none-eabi/lib/thumb/v7-m/nofp\libg.a(lib_a-impure.o)
 .bss           0x00000000        0x0 d:/environment/gcc-arm-none-eabi/bin/../lib/gcc/arm-none-eabi/9.2.1/../../../../arm-none-eabi/lib/thumb/v7-m/nofp\libg.a(lib_a-impure.o)
 .text          0x00000000        0x0 d:/environment/gcc-arm-none-eabi/bin/../lib/gcc/arm-none-eabi/9.2.1/../../../../arm-none-eabi/lib/thumb/v7-m/nofp\libg.a(lib_a-init.o)
 .data          0x00000000        0x0 d:/environment/gcc-arm-none-eabi/bin/../lib/gcc/arm-none-eabi/9.2.1/../../../../arm-none-eabi/lib/thumb/v7-m/nofp\libg.a(lib_a-init.o)
 .bss           0x00000000        0x0 d:/environment/gcc-arm-none-eabi/bin/../lib/gcc/arm-none-eabi/9.2.1/../../../../arm-none-eabi/lib/thumb/v7-m/nofp\libg.a(lib_a-init.o)
 .text          0x00000000        0x0 d:/environment/gcc-arm-none-eabi/bin/../lib/gcc/arm-none-eabi/9.2.1/../../../../arm-none-eabi/lib/thumb/v7-m/nofp\libg.a(lib_a-memcmp.o)
 .data          0x00000000        0x0 d:/environment/gcc-arm-none-eabi/bin/../lib/gcc/arm-none-eabi/9.2.1/../../../../arm-none-eabi/lib/thumb/v7-m/nofp\libg.a(lib_a-memcmp.o)
 .bss           0x00000000        0x0 d:/environment/gcc-arm-none-eabi/bin/../lib/gcc/arm-none-eabi/9.2.1/../../../../arm-none-eabi/lib/thumb/v7-m/nofp\libg.a(lib_a-memcmp.o)
 .text          0x00000000        0x0 d:/environment/gcc-arm-none-eabi/bin/../lib/gcc/arm-none-eabi/9.2.1/../../../../arm-none-eabi/lib/thumb/v7-m/nofp\libg.a(lib_a-memset.o)
 .data          0x00000000        0x0 d:/environment/gcc-arm-none-eabi/bin/../lib/gcc/arm-none-eabi/9.2.1/../../../../arm-none-eabi/lib/thumb/v7-m/nofp\libg.a(lib_a-memset.o)
 .bss           0x00000000        0x0 d:/environment/gcc-arm-none-eabi/bin/../lib/gcc/arm-none-eabi/9.2.1/../../../../arm-none-eabi/lib/thumb/v7-m/nofp\libg.a(lib_a-memset.o)
 .text          0x00000000        0x0 d:/environment/gcc-arm-none-eabi/bin/../lib/gcc/arm-none-eabi/9.2.1/../../../../arm-none-eabi/lib/thumb/v7-m/nofp\libg.a(lib_a-printf.o)
 .data          0x00000000        0x0 d:/environment/gcc-arm-none-eabi/bin/../lib/gcc/arm-none-eabi/9.2.1/../../../../arm-none-eabi/lib/thumb/v7-m/nofp\libg.a(lib_a-printf.o)
 .bss           0x00000000        0x0 d:/environment/gcc-arm-none-eabi/bin/../lib/gcc/arm-none-eabi/9.2.1/../../../../arm-none-eabi/lib/thumb/v7-m/nofp\libg.a(lib_a-printf.o)
 .text._printf_r
                0x00000000       0x20 d:/environment/gcc-arm-none-eabi/bin/../lib/gcc/arm-none-eabi/9.2.1/../../../../arm-none-eabi/lib/thumb/v7-m/nofp\libg.a(lib_a-printf.o)
 .text          0x00000000        0x0 d:/environment/gcc-arm-none-eabi/bin/../lib/gcc/arm-none-eabi/9.2.1/../../../../arm-none-eabi/lib/thumb/v7-m/nofp\libg.a(lib_a-puts.o)
 .data          0x00000000        0x0 d:/environment/gcc-arm-none-eabi/bin/../lib/gcc/arm-none-eabi/9.2.1/../../../../arm-none-eabi/lib/thumb/v7-m/nofp\libg.a(lib_a-puts.o)
 .bss           0x00000000        0x0 d:/environment/gcc-arm-none-eabi/bin/../lib/gcc/arm-none-eabi/9.2.1/../../../../arm-none-eabi/lib/thumb/v7-m/nofp\libg.a(lib_a-puts.o)
 .text          0x00000000        0x0 d:/environment/gcc-arm-none-eabi/bin/../lib/gcc/arm-none-eabi/9.2.1/../../../../arm-none-eabi/lib/thumb/v7-m/nofp\libg.a(lib_a-rand.o)
 .data          0x00000000        0x0 d:/environment/gcc-arm-none-eabi/bin/../lib/gcc/arm-none-eabi/9.2.1/../../../../arm-none-eabi/lib/thumb/v7-m/nofp\libg.a(lib_a-rand.o)
 .bss           0x00000000        0x0 d:/environment/gcc-arm-none-eabi/bin/../lib/gcc/arm-none-eabi/9.2.1/../../../../arm-none-eabi/lib/thumb/v7-m/nofp\libg.a(lib_a-rand.o)
 .text.srand    0x00000000       0x10 d:/environment/gcc-arm-none-eabi/bin/../lib/gcc/arm-none-eabi/9.2.1/../../../../arm-none-eabi/lib/thumb/v7-m/nofp\libg.a(lib_a-rand.o)
 .text.rand     0x00000000       0x3c d:/environment/gcc-arm-none-eabi/bin/../lib/gcc/arm-none-eabi/9.2.1/../../../../arm-none-eabi/lib/thumb/v7-m/nofp\libg.a(lib_a-rand.o)
 .debug_frame   0x00000000       0x3c d:/environment/gcc-arm-none-eabi/bin/../lib/gcc/arm-none-eabi/9.2.1/../../../../arm-none-eabi/lib/thumb/v7-m/nofp\libg.a(lib_a-rand.o)
 .ARM.attributes
                0x00000000       0x2d d:/environment/gcc-arm-none-eabi/bin/../lib/gcc/arm-none-eabi/9.2.1/../../../../arm-none-eabi/lib/thumb/v7-m/nofp\libg.a(lib_a-rand.o)
 .text          0x00000000        0x0 d:/environment/gcc-arm-none-eabi/bin/../lib/gcc/arm-none-eabi/9.2.1/../../../../arm-none-eabi/lib/thumb/v7-m/nofp\libg.a(lib_a-strlen-stub.o)
 .data          0x00000000        0x0 d:/environment/gcc-arm-none-eabi/bin/../lib/gcc/arm-none-eabi/9.2.1/../../../../arm-none-eabi/lib/thumb/v7-m/nofp\libg.a(lib_a-strlen-stub.o)
 .bss           0x00000000        0x0 d:/environment/gcc-arm-none-eabi/bin/../lib/gcc/arm-none-eabi/9.2.1/../../../../arm-none-eabi/lib/thumb/v7-m/nofp\libg.a(lib_a-strlen-stub.o)
 .text          0x00000000        0x0 d:/environment/gcc-arm-none-eabi/bin/../lib/gcc/arm-none-eabi/9.2.1/../../../../arm-none-eabi/lib/thumb/v7-m/nofp\libg.a(lib_a-vfprintf.o)
 .data          0x00000000        0x0 d:/environment/gcc-arm-none-eabi/bin/../lib/gcc/arm-none-eabi/9.2.1/../../../../arm-none-eabi/lib/thumb/v7-m/nofp\libg.a(lib_a-vfprintf.o)
 .bss           0x00000000        0x0 d:/environment/gcc-arm-none-eabi/bin/../lib/gcc/arm-none-eabi/9.2.1/../../../../arm-none-eabi/lib/thumb/v7-m/nofp\libg.a(lib_a-vfprintf.o)
 .text.vfprintf
                0x00000000       0x18 d:/environment/gcc-arm-none-eabi/bin/../lib/gcc/arm-none-eabi/9.2.1/../../../../arm-none-eabi/lib/thumb/v7-m/nofp\libg.a(lib_a-vfprintf.o)
 .text          0x00000000        0x0 d:/environment/gcc-arm-none-eabi/bin/../lib/gcc/arm-none-eabi/9.2.1/../../../../arm-none-eabi/lib/thumb/v7-m/nofp\libg.a(lib_a-wsetup.o)
 .data          0x00000000        0x0 d:/environment/gcc-arm-none-eabi/bin/../lib/gcc/arm-none-eabi/9.2.1/../../../../arm-none-eabi/lib/thumb/v7-m/nofp\libg.a(lib_a-wsetup.o)
 .bss           0x00000000        0x0 d:/environment/gcc-arm-none-eabi/bin/../lib/gcc/arm-none-eabi/9.2.1/../../../../arm-none-eabi/lib/thumb/v7-m/nofp\libg.a(lib_a-wsetup.o)
 .text          0x00000000        0x0 d:/environment/gcc-arm-none-eabi/bin/../lib/gcc/arm-none-eabi/9.2.1/../../../../arm-none-eabi/lib/thumb/v7-m/nofp\libg.a(lib_a-__call_atexit.o)
 .data          0x00000000        0x0 d:/environment/gcc-arm-none-eabi/bin/../lib/gcc/arm-none-eabi/9.2.1/../../../../arm-none-eabi/lib/thumb/v7-m/nofp\libg.a(lib_a-__call_atexit.o)
 .bss           0x00000000        0x0 d:/environment/gcc-arm-none-eabi/bin/../lib/gcc/arm-none-eabi/9.2.1/../../../../arm-none-eabi/lib/thumb/v7-m/nofp\libg.a(lib_a-__call_atexit.o)
 .text.__call_exitprocs
                0x00000000       0xc0 d:/environment/gcc-arm-none-eabi/bin/../lib/gcc/arm-none-eabi/9.2.1/../../../../arm-none-eabi/lib/thumb/v7-m/nofp\libg.a(lib_a-__call_atexit.o)
 .text          0x00000000        0x0 d:/environment/gcc-arm-none-eabi/bin/../lib/gcc/arm-none-eabi/9.2.1/../../../../arm-none-eabi/lib/thumb/v7-m/nofp\libg.a(lib_a-atexit.o)
 .data          0x00000000        0x0 d:/environment/gcc-arm-none-eabi/bin/../lib/gcc/arm-none-eabi/9.2.1/../../../../arm-none-eabi/lib/thumb/v7-m/nofp\libg.a(lib_a-atexit.o)
 .bss           0x00000000        0x0 d:/environment/gcc-arm-none-eabi/bin/../lib/gcc/arm-none-eabi/9.2.1/../../../../arm-none-eabi/lib/thumb/v7-m/nofp\libg.a(lib_a-atexit.o)
 .text          0x00000000        0x0 d:/environment/gcc-arm-none-eabi/bin/../lib/gcc/arm-none-eabi/9.2.1/../../../../arm-none-eabi/lib/thumb/v7-m/nofp\libg.a(lib_a-dtoa.o)
 .data          0x00000000        0x0 d:/environment/gcc-arm-none-eabi/bin/../lib/gcc/arm-none-eabi/9.2.1/../../../../arm-none-eabi/lib/thumb/v7-m/nofp\libg.a(lib_a-dtoa.o)
 .bss           0x00000000        0x0 d:/environment/gcc-arm-none-eabi/bin/../lib/gcc/arm-none-eabi/9.2.1/../../../../arm-none-eabi/lib/thumb/v7-m/nofp\libg.a(lib_a-dtoa.o)
 .text          0x00000000        0x0 d:/environment/gcc-arm-none-eabi/bin/../lib/gcc/arm-none-eabi/9.2.1/../../../../arm-none-eabi/lib/thumb/v7-m/nofp\libg.a(lib_a-fflush.o)
 .data          0x00000000        0x0 d:/environment/gcc-arm-none-eabi/bin/../lib/gcc/arm-none-eabi/9.2.1/../../../../arm-none-eabi/lib/thumb/v7-m/nofp\libg.a(lib_a-fflush.o)
 .bss           0x00000000        0x0 d:/environment/gcc-arm-none-eabi/bin/../lib/gcc/arm-none-eabi/9.2.1/../../../../arm-none-eabi/lib/thumb/v7-m/nofp\libg.a(lib_a-fflush.o)
 .text.fflush   0x00000000       0x24 d:/environment/gcc-arm-none-eabi/bin/../lib/gcc/arm-none-eabi/9.2.1/../../../../arm-none-eabi/lib/thumb/v7-m/nofp\libg.a(lib_a-fflush.o)
 .text          0x00000000        0x0 d:/environment/gcc-arm-none-eabi/bin/../lib/gcc/arm-none-eabi/9.2.1/../../../../arm-none-eabi/lib/thumb/v7-m/nofp\libg.a(lib_a-findfp.o)
 .data          0x00000000        0x0 d:/environment/gcc-arm-none-eabi/bin/../lib/gcc/arm-none-eabi/9.2.1/../../../../arm-none-eabi/lib/thumb/v7-m/nofp\libg.a(lib_a-findfp.o)
 .bss           0x00000000        0x0 d:/environment/gcc-arm-none-eabi/bin/../lib/gcc/arm-none-eabi/9.2.1/../../../../arm-none-eabi/lib/thumb/v7-m/nofp\libg.a(lib_a-findfp.o)
 .text.__fp_lock
                0x00000000       0x1c d:/environment/gcc-arm-none-eabi/bin/../lib/gcc/arm-none-eabi/9.2.1/../../../../arm-none-eabi/lib/thumb/v7-m/nofp\libg.a(lib_a-findfp.o)
 .text.__fp_unlock
                0x00000000       0x1c d:/environment/gcc-arm-none-eabi/bin/../lib/gcc/arm-none-eabi/9.2.1/../../../../arm-none-eabi/lib/thumb/v7-m/nofp\libg.a(lib_a-findfp.o)
 .text.__sfmoreglue
                0x00000000       0x30 d:/environment/gcc-arm-none-eabi/bin/../lib/gcc/arm-none-eabi/9.2.1/../../../../arm-none-eabi/lib/thumb/v7-m/nofp\libg.a(lib_a-findfp.o)
 .text._cleanup
                0x00000000       0x14 d:/environment/gcc-arm-none-eabi/bin/../lib/gcc/arm-none-eabi/9.2.1/../../../../arm-none-eabi/lib/thumb/v7-m/nofp\libg.a(lib_a-findfp.o)
 .text.__sfp    0x00000000       0xa4 d:/environment/gcc-arm-none-eabi/bin/../lib/gcc/arm-none-eabi/9.2.1/../../../../arm-none-eabi/lib/thumb/v7-m/nofp\libg.a(lib_a-findfp.o)
 .text.__sinit_lock_acquire
                0x00000000        0xc d:/environment/gcc-arm-none-eabi/bin/../lib/gcc/arm-none-eabi/9.2.1/../../../../arm-none-eabi/lib/thumb/v7-m/nofp\libg.a(lib_a-findfp.o)
 .text.__sinit_lock_release
                0x00000000        0xc d:/environment/gcc-arm-none-eabi/bin/../lib/gcc/arm-none-eabi/9.2.1/../../../../arm-none-eabi/lib/thumb/v7-m/nofp\libg.a(lib_a-findfp.o)
 .text.__fp_lock_all
                0x00000000       0x24 d:/environment/gcc-arm-none-eabi/bin/../lib/gcc/arm-none-eabi/9.2.1/../../../../arm-none-eabi/lib/thumb/v7-m/nofp\libg.a(lib_a-findfp.o)
 .text.__fp_unlock_all
                0x00000000       0x24 d:/environment/gcc-arm-none-eabi/bin/../lib/gcc/arm-none-eabi/9.2.1/../../../../arm-none-eabi/lib/thumb/v7-m/nofp\libg.a(lib_a-findfp.o)
 .text          0x00000000        0x0 d:/environment/gcc-arm-none-eabi/bin/../lib/gcc/arm-none-eabi/9.2.1/../../../../arm-none-eabi/lib/thumb/v7-m/nofp\libg.a(lib_a-fini.o)
 .data          0x00000000        0x0 d:/environment/gcc-arm-none-eabi/bin/../lib/gcc/arm-none-eabi/9.2.1/../../../../arm-none-eabi/lib/thumb/v7-m/nofp\libg.a(lib_a-fini.o)
 .bss           0x00000000        0x0 d:/environment/gcc-arm-none-eabi/bin/../lib/gcc/arm-none-eabi/9.2.1/../../../../arm-none-eabi/lib/thumb/v7-m/nofp\libg.a(lib_a-fini.o)
 .text          0x00000000        0x0 d:/environment/gcc-arm-none-eabi/bin/../lib/gcc/arm-none-eabi/9.2.1/../../../../arm-none-eabi/lib/thumb/v7-m/nofp\libg.a(lib_a-freer.o)
 .data          0x00000000        0x0 d:/environment/gcc-arm-none-eabi/bin/../lib/gcc/arm-none-eabi/9.2.1/../../../../arm-none-eabi/lib/thumb/v7-m/nofp\libg.a(lib_a-freer.o)
 .bss           0x00000000        0x0 d:/environment/gcc-arm-none-eabi/bin/../lib/gcc/arm-none-eabi/9.2.1/../../../../arm-none-eabi/lib/thumb/v7-m/nofp\libg.a(lib_a-freer.o)
 .text          0x00000000        0x0 d:/environment/gcc-arm-none-eabi/bin/../lib/gcc/arm-none-eabi/9.2.1/../../../../arm-none-eabi/lib/thumb/v7-m/nofp\libg.a(lib_a-fvwrite.o)
 .data          0x00000000        0x0 d:/environment/gcc-arm-none-eabi/bin/../lib/gcc/arm-none-eabi/9.2.1/../../../../arm-none-eabi/lib/thumb/v7-m/nofp\libg.a(lib_a-fvwrite.o)
 .bss           0x00000000        0x0 d:/environment/gcc-arm-none-eabi/bin/../lib/gcc/arm-none-eabi/9.2.1/../../../../arm-none-eabi/lib/thumb/v7-m/nofp\libg.a(lib_a-fvwrite.o)
 .text          0x00000000        0x0 d:/environment/gcc-arm-none-eabi/bin/../lib/gcc/arm-none-eabi/9.2.1/../../../../arm-none-eabi/lib/thumb/v7-m/nofp\libg.a(lib_a-fwalk.o)
 .data          0x00000000        0x0 d:/environment/gcc-arm-none-eabi/bin/../lib/gcc/arm-none-eabi/9.2.1/../../../../arm-none-eabi/lib/thumb/v7-m/nofp\libg.a(lib_a-fwalk.o)
 .bss           0x00000000        0x0 d:/environment/gcc-arm-none-eabi/bin/../lib/gcc/arm-none-eabi/9.2.1/../../../../arm-none-eabi/lib/thumb/v7-m/nofp\libg.a(lib_a-fwalk.o)
 .text._fwalk   0x00000000       0x40 d:/environment/gcc-arm-none-eabi/bin/../lib/gcc/arm-none-eabi/9.2.1/../../../../arm-none-eabi/lib/thumb/v7-m/nofp\libg.a(lib_a-fwalk.o)
 .text          0x00000000        0x0 d:/environment/gcc-arm-none-eabi/bin/../lib/gcc/arm-none-eabi/9.2.1/../../../../arm-none-eabi/lib/thumb/v7-m/nofp\libg.a(lib_a-localeconv.o)
 .data          0x00000000        0x0 d:/environment/gcc-arm-none-eabi/bin/../lib/gcc/arm-none-eabi/9.2.1/../../../../arm-none-eabi/lib/thumb/v7-m/nofp\libg.a(lib_a-localeconv.o)
 .bss           0x00000000        0x0 d:/environment/gcc-arm-none-eabi/bin/../lib/gcc/arm-none-eabi/9.2.1/../../../../arm-none-eabi/lib/thumb/v7-m/nofp\libg.a(lib_a-localeconv.o)
 .text.__localeconv_l
                0x00000000        0x4 d:/environment/gcc-arm-none-eabi/bin/../lib/gcc/arm-none-eabi/9.2.1/../../../../arm-none-eabi/lib/thumb/v7-m/nofp\libg.a(lib_a-localeconv.o)
 .text.localeconv
                0x00000000        0x8 d:/environment/gcc-arm-none-eabi/bin/../lib/gcc/arm-none-eabi/9.2.1/../../../../arm-none-eabi/lib/thumb/v7-m/nofp\libg.a(lib_a-localeconv.o)
 .text          0x00000000        0x0 d:/environment/gcc-arm-none-eabi/bin/../lib/gcc/arm-none-eabi/9.2.1/../../../../arm-none-eabi/lib/thumb/v7-m/nofp\libg.a(lib_a-lock.o)
 .data          0x00000000        0x0 d:/environment/gcc-arm-none-eabi/bin/../lib/gcc/arm-none-eabi/9.2.1/../../../../arm-none-eabi/lib/thumb/v7-m/nofp\libg.a(lib_a-lock.o)
 .bss           0x00000000        0x0 d:/environment/gcc-arm-none-eabi/bin/../lib/gcc/arm-none-eabi/9.2.1/../../../../arm-none-eabi/lib/thumb/v7-m/nofp\libg.a(lib_a-lock.o)
 .text.__retarget_lock_init
                0x00000000        0x4 d:/environment/gcc-arm-none-eabi/bin/../lib/gcc/arm-none-eabi/9.2.1/../../../../arm-none-eabi/lib/thumb/v7-m/nofp\libg.a(lib_a-lock.o)
 .text.__retarget_lock_close
                0x00000000        0x4 d:/environment/gcc-arm-none-eabi/bin/../lib/gcc/arm-none-eabi/9.2.1/../../../../arm-none-eabi/lib/thumb/v7-m/nofp\libg.a(lib_a-lock.o)
 .text.__retarget_lock_acquire
                0x00000000        0x4 d:/environment/gcc-arm-none-eabi/bin/../lib/gcc/arm-none-eabi/9.2.1/../../../../arm-none-eabi/lib/thumb/v7-m/nofp\libg.a(lib_a-lock.o)
 .text.__retarget_lock_try_acquire
                0x00000000        0x4 d:/environment/gcc-arm-none-eabi/bin/../lib/gcc/arm-none-eabi/9.2.1/../../../../arm-none-eabi/lib/thumb/v7-m/nofp\libg.a(lib_a-lock.o)
 .text.__retarget_lock_try_acquire_recursive
                0x00000000        0x4 d:/environment/gcc-arm-none-eabi/bin/../lib/gcc/arm-none-eabi/9.2.1/../../../../arm-none-eabi/lib/thumb/v7-m/nofp\libg.a(lib_a-lock.o)
 .text.__retarget_lock_release
                0x00000000        0x4 d:/environment/gcc-arm-none-eabi/bin/../lib/gcc/arm-none-eabi/9.2.1/../../../../arm-none-eabi/lib/thumb/v7-m/nofp\libg.a(lib_a-lock.o)
 .text          0x00000000        0x0 d:/environment/gcc-arm-none-eabi/bin/../lib/gcc/arm-none-eabi/9.2.1/../../../../arm-none-eabi/lib/thumb/v7-m/nofp\libg.a(lib_a-makebuf.o)
 .data          0x00000000        0x0 d:/environment/gcc-arm-none-eabi/bin/../lib/gcc/arm-none-eabi/9.2.1/../../../../arm-none-eabi/lib/thumb/v7-m/nofp\libg.a(lib_a-makebuf.o)
 .bss           0x00000000        0x0 d:/environment/gcc-arm-none-eabi/bin/../lib/gcc/arm-none-eabi/9.2.1/../../../../arm-none-eabi/lib/thumb/v7-m/nofp\libg.a(lib_a-makebuf.o)
 .text          0x00000000        0x0 d:/environment/gcc-arm-none-eabi/bin/../lib/gcc/arm-none-eabi/9.2.1/../../../../arm-none-eabi/lib/thumb/v7-m/nofp\libg.a(lib_a-mallocr.o)
 .data          0x00000000        0x0 d:/environment/gcc-arm-none-eabi/bin/../lib/gcc/arm-none-eabi/9.2.1/../../../../arm-none-eabi/lib/thumb/v7-m/nofp\libg.a(lib_a-mallocr.o)
 .bss           0x00000000        0x0 d:/environment/gcc-arm-none-eabi/bin/../lib/gcc/arm-none-eabi/9.2.1/../../../../arm-none-eabi/lib/thumb/v7-m/nofp\libg.a(lib_a-mallocr.o)
 .text          0x00000000        0x0 d:/environment/gcc-arm-none-eabi/bin/../lib/gcc/arm-none-eabi/9.2.1/../../../../arm-none-eabi/lib/thumb/v7-m/nofp\libg.a(lib_a-memchr-stub.o)
 .data          0x00000000        0x0 d:/environment/gcc-arm-none-eabi/bin/../lib/gcc/arm-none-eabi/9.2.1/../../../../arm-none-eabi/lib/thumb/v7-m/nofp\libg.a(lib_a-memchr-stub.o)
 .bss           0x00000000        0x0 d:/environment/gcc-arm-none-eabi/bin/../lib/gcc/arm-none-eabi/9.2.1/../../../../arm-none-eabi/lib/thumb/v7-m/nofp\libg.a(lib_a-memchr-stub.o)
 .data          0x00000000        0x0 d:/environment/gcc-arm-none-eabi/bin/../lib/gcc/arm-none-eabi/9.2.1/../../../../arm-none-eabi/lib/thumb/v7-m/nofp\libg.a(lib_a-memcpy.o)
 .bss           0x00000000        0x0 d:/environment/gcc-arm-none-eabi/bin/../lib/gcc/arm-none-eabi/9.2.1/../../../../arm-none-eabi/lib/thumb/v7-m/nofp\libg.a(lib_a-memcpy.o)
 .text          0x00000000        0x0 d:/environment/gcc-arm-none-eabi/bin/../lib/gcc/arm-none-eabi/9.2.1/../../../../arm-none-eabi/lib/thumb/v7-m/nofp\libg.a(lib_a-memmove.o)
 .data          0x00000000        0x0 d:/environment/gcc-arm-none-eabi/bin/../lib/gcc/arm-none-eabi/9.2.1/../../../../arm-none-eabi/lib/thumb/v7-m/nofp\libg.a(lib_a-memmove.o)
 .bss           0x00000000        0x0 d:/environment/gcc-arm-none-eabi/bin/../lib/gcc/arm-none-eabi/9.2.1/../../../../arm-none-eabi/lib/thumb/v7-m/nofp\libg.a(lib_a-memmove.o)
 .text          0x00000000        0x0 d:/environment/gcc-arm-none-eabi/bin/../lib/gcc/arm-none-eabi/9.2.1/../../../../arm-none-eabi/lib/thumb/v7-m/nofp\libg.a(lib_a-mlock.o)
 .data          0x00000000        0x0 d:/environment/gcc-arm-none-eabi/bin/../lib/gcc/arm-none-eabi/9.2.1/../../../../arm-none-eabi/lib/thumb/v7-m/nofp\libg.a(lib_a-mlock.o)
 .bss           0x00000000        0x0 d:/environment/gcc-arm-none-eabi/bin/../lib/gcc/arm-none-eabi/9.2.1/../../../../arm-none-eabi/lib/thumb/v7-m/nofp\libg.a(lib_a-mlock.o)
 .text          0x00000000        0x0 d:/environment/gcc-arm-none-eabi/bin/../lib/gcc/arm-none-eabi/9.2.1/../../../../arm-none-eabi/lib/thumb/v7-m/nofp\libg.a(lib_a-mprec.o)
 .data          0x00000000        0x0 d:/environment/gcc-arm-none-eabi/bin/../lib/gcc/arm-none-eabi/9.2.1/../../../../arm-none-eabi/lib/thumb/v7-m/nofp\libg.a(lib_a-mprec.o)
 .bss           0x00000000        0x0 d:/environment/gcc-arm-none-eabi/bin/../lib/gcc/arm-none-eabi/9.2.1/../../../../arm-none-eabi/lib/thumb/v7-m/nofp\libg.a(lib_a-mprec.o)
 .text.__s2b    0x00000000       0xa0 d:/environment/gcc-arm-none-eabi/bin/../lib/gcc/arm-none-eabi/9.2.1/../../../../arm-none-eabi/lib/thumb/v7-m/nofp\libg.a(lib_a-mprec.o)
 .text.__ulp    0x00000000       0x44 d:/environment/gcc-arm-none-eabi/bin/../lib/gcc/arm-none-eabi/9.2.1/../../../../arm-none-eabi/lib/thumb/v7-m/nofp\libg.a(lib_a-mprec.o)
 .text.__b2d    0x00000000       0xd4 d:/environment/gcc-arm-none-eabi/bin/../lib/gcc/arm-none-eabi/9.2.1/../../../../arm-none-eabi/lib/thumb/v7-m/nofp\libg.a(lib_a-mprec.o)
 .text.__ratio  0x00000000       0x5c d:/environment/gcc-arm-none-eabi/bin/../lib/gcc/arm-none-eabi/9.2.1/../../../../arm-none-eabi/lib/thumb/v7-m/nofp\libg.a(lib_a-mprec.o)
 .text._mprec_log10
                0x00000000       0x38 d:/environment/gcc-arm-none-eabi/bin/../lib/gcc/arm-none-eabi/9.2.1/../../../../arm-none-eabi/lib/thumb/v7-m/nofp\libg.a(lib_a-mprec.o)
 .text.__copybits
                0x00000000       0x48 d:/environment/gcc-arm-none-eabi/bin/../lib/gcc/arm-none-eabi/9.2.1/../../../../arm-none-eabi/lib/thumb/v7-m/nofp\libg.a(lib_a-mprec.o)
 .text.__any_on
                0x00000000       0x60 d:/environment/gcc-arm-none-eabi/bin/../lib/gcc/arm-none-eabi/9.2.1/../../../../arm-none-eabi/lib/thumb/v7-m/nofp\libg.a(lib_a-mprec.o)
 .rodata.__mprec_tinytens
                0x00000000       0x28 d:/environment/gcc-arm-none-eabi/bin/../lib/gcc/arm-none-eabi/9.2.1/../../../../arm-none-eabi/lib/thumb/v7-m/nofp\libg.a(lib_a-mprec.o)
 .text          0x00000000        0x0 d:/environment/gcc-arm-none-eabi/bin/../lib/gcc/arm-none-eabi/9.2.1/../../../../arm-none-eabi/lib/thumb/v7-m/nofp\libg.a(lib_a-reallocr.o)
 .data          0x00000000        0x0 d:/environment/gcc-arm-none-eabi/bin/../lib/gcc/arm-none-eabi/9.2.1/../../../../arm-none-eabi/lib/thumb/v7-m/nofp\libg.a(lib_a-reallocr.o)
 .bss           0x00000000        0x0 d:/environment/gcc-arm-none-eabi/bin/../lib/gcc/arm-none-eabi/9.2.1/../../../../arm-none-eabi/lib/thumb/v7-m/nofp\libg.a(lib_a-reallocr.o)
 .text          0x00000000        0x0 d:/environment/gcc-arm-none-eabi/bin/../lib/gcc/arm-none-eabi/9.2.1/../../../../arm-none-eabi/lib/thumb/v7-m/nofp\libg.a(lib_a-s_frexp.o)
 .data          0x00000000        0x0 d:/environment/gcc-arm-none-eabi/bin/../lib/gcc/arm-none-eabi/9.2.1/../../../../arm-none-eabi/lib/thumb/v7-m/nofp\libg.a(lib_a-s_frexp.o)
 .bss           0x00000000        0x0 d:/environment/gcc-arm-none-eabi/bin/../lib/gcc/arm-none-eabi/9.2.1/../../../../arm-none-eabi/lib/thumb/v7-m/nofp\libg.a(lib_a-s_frexp.o)
 .text          0x00000000        0x0 d:/environment/gcc-arm-none-eabi/bin/../lib/gcc/arm-none-eabi/9.2.1/../../../../arm-none-eabi/lib/thumb/v7-m/nofp\libg.a(lib_a-sbrkr.o)
 .data          0x00000000        0x0 d:/environment/gcc-arm-none-eabi/bin/../lib/gcc/arm-none-eabi/9.2.1/../../../../arm-none-eabi/lib/thumb/v7-m/nofp\libg.a(lib_a-sbrkr.o)
 .bss           0x00000000        0x0 d:/environment/gcc-arm-none-eabi/bin/../lib/gcc/arm-none-eabi/9.2.1/../../../../arm-none-eabi/lib/thumb/v7-m/nofp\libg.a(lib_a-sbrkr.o)
 .text          0x00000000        0x0 d:/environment/gcc-arm-none-eabi/bin/../lib/gcc/arm-none-eabi/9.2.1/../../../../arm-none-eabi/lib/thumb/v7-m/nofp\libg.a(lib_a-stdio.o)
 .data          0x00000000        0x0 d:/environment/gcc-arm-none-eabi/bin/../lib/gcc/arm-none-eabi/9.2.1/../../../../arm-none-eabi/lib/thumb/v7-m/nofp\libg.a(lib_a-stdio.o)
 .bss           0x00000000        0x0 d:/environment/gcc-arm-none-eabi/bin/../lib/gcc/arm-none-eabi/9.2.1/../../../../arm-none-eabi/lib/thumb/v7-m/nofp\libg.a(lib_a-stdio.o)
 .text.__seofread
                0x00000000        0x4 d:/environment/gcc-arm-none-eabi/bin/../lib/gcc/arm-none-eabi/9.2.1/../../../../arm-none-eabi/lib/thumb/v7-m/nofp\libg.a(lib_a-stdio.o)
 .text          0x00000000        0x0 d:/environment/gcc-arm-none-eabi/bin/../lib/gcc/arm-none-eabi/9.2.1/../../../../arm-none-eabi/lib/thumb/v7-m/nofp\libg.a(lib_a-strncpy.o)
 .data          0x00000000        0x0 d:/environment/gcc-arm-none-eabi/bin/../lib/gcc/arm-none-eabi/9.2.1/../../../../arm-none-eabi/lib/thumb/v7-m/nofp\libg.a(lib_a-strncpy.o)
 .bss           0x00000000        0x0 d:/environment/gcc-arm-none-eabi/bin/../lib/gcc/arm-none-eabi/9.2.1/../../../../arm-none-eabi/lib/thumb/v7-m/nofp\libg.a(lib_a-strncpy.o)
 .text          0x00000000        0x0 d:/environment/gcc-arm-none-eabi/bin/../lib/gcc/arm-none-eabi/9.2.1/../../../../arm-none-eabi/lib/thumb/v7-m/nofp\libg.a(lib_a-vfiprintf.o)
 .data          0x00000000        0x0 d:/environment/gcc-arm-none-eabi/bin/../lib/gcc/arm-none-eabi/9.2.1/../../../../arm-none-eabi/lib/thumb/v7-m/nofp\libg.a(lib_a-vfiprintf.o)
 .bss           0x00000000        0x0 d:/environment/gcc-arm-none-eabi/bin/../lib/gcc/arm-none-eabi/9.2.1/../../../../arm-none-eabi/lib/thumb/v7-m/nofp\libg.a(lib_a-vfiprintf.o)
 .rodata._vfiprintf_r.str1.4
                0x00000000       0x2f d:/environment/gcc-arm-none-eabi/bin/../lib/gcc/arm-none-eabi/9.2.1/../../../../arm-none-eabi/lib/thumb/v7-m/nofp\libg.a(lib_a-vfiprintf.o)
 .text._vfiprintf_r
                0x00000000      0xd2c d:/environment/gcc-arm-none-eabi/bin/../lib/gcc/arm-none-eabi/9.2.1/../../../../arm-none-eabi/lib/thumb/v7-m/nofp\libg.a(lib_a-vfiprintf.o)
 .text.vfiprintf
                0x00000000       0x18 d:/environment/gcc-arm-none-eabi/bin/../lib/gcc/arm-none-eabi/9.2.1/../../../../arm-none-eabi/lib/thumb/v7-m/nofp\libg.a(lib_a-vfiprintf.o)
 .text.__sbprintf
                0x00000000       0x88 d:/environment/gcc-arm-none-eabi/bin/../lib/gcc/arm-none-eabi/9.2.1/../../../../arm-none-eabi/lib/thumb/v7-m/nofp\libg.a(lib_a-vfiprintf.o)
 .rodata.blanks.7338
                0x00000000       0x10 d:/environment/gcc-arm-none-eabi/bin/../lib/gcc/arm-none-eabi/9.2.1/../../../../arm-none-eabi/lib/thumb/v7-m/nofp\libg.a(lib_a-vfiprintf.o)
 .rodata.zeroes.7339
                0x00000000       0x10 d:/environment/gcc-arm-none-eabi/bin/../lib/gcc/arm-none-eabi/9.2.1/../../../../arm-none-eabi/lib/thumb/v7-m/nofp\libg.a(lib_a-vfiprintf.o)
 .text          0x00000000        0x0 d:/environment/gcc-arm-none-eabi/bin/../lib/gcc/arm-none-eabi/9.2.1/../../../../arm-none-eabi/lib/thumb/v7-m/nofp\libg.a(lib_a-writer.o)
 .data          0x00000000        0x0 d:/environment/gcc-arm-none-eabi/bin/../lib/gcc/arm-none-eabi/9.2.1/../../../../arm-none-eabi/lib/thumb/v7-m/nofp\libg.a(lib_a-writer.o)
 .bss           0x00000000        0x0 d:/environment/gcc-arm-none-eabi/bin/../lib/gcc/arm-none-eabi/9.2.1/../../../../arm-none-eabi/lib/thumb/v7-m/nofp\libg.a(lib_a-writer.o)
 .text          0x00000000        0x0 d:/environment/gcc-arm-none-eabi/bin/../lib/gcc/arm-none-eabi/9.2.1/../../../../arm-none-eabi/lib/thumb/v7-m/nofp\libg.a(lib_a-__atexit.o)
 .data          0x00000000        0x0 d:/environment/gcc-arm-none-eabi/bin/../lib/gcc/arm-none-eabi/9.2.1/../../../../arm-none-eabi/lib/thumb/v7-m/nofp\libg.a(lib_a-__atexit.o)
 .bss           0x00000000        0x0 d:/environment/gcc-arm-none-eabi/bin/../lib/gcc/arm-none-eabi/9.2.1/../../../../arm-none-eabi/lib/thumb/v7-m/nofp\libg.a(lib_a-__atexit.o)
 .text          0x00000000        0x0 d:/environment/gcc-arm-none-eabi/bin/../lib/gcc/arm-none-eabi/9.2.1/../../../../arm-none-eabi/lib/thumb/v7-m/nofp\libg.a(lib_a-callocr.o)
 .data          0x00000000        0x0 d:/environment/gcc-arm-none-eabi/bin/../lib/gcc/arm-none-eabi/9.2.1/../../../../arm-none-eabi/lib/thumb/v7-m/nofp\libg.a(lib_a-callocr.o)
 .bss           0x00000000        0x0 d:/environment/gcc-arm-none-eabi/bin/../lib/gcc/arm-none-eabi/9.2.1/../../../../arm-none-eabi/lib/thumb/v7-m/nofp\libg.a(lib_a-callocr.o)
 .text          0x00000000        0x0 d:/environment/gcc-arm-none-eabi/bin/../lib/gcc/arm-none-eabi/9.2.1/../../../../arm-none-eabi/lib/thumb/v7-m/nofp\libg.a(lib_a-closer.o)
 .data          0x00000000        0x0 d:/environment/gcc-arm-none-eabi/bin/../lib/gcc/arm-none-eabi/9.2.1/../../../../arm-none-eabi/lib/thumb/v7-m/nofp\libg.a(lib_a-closer.o)
 .bss           0x00000000        0x0 d:/environment/gcc-arm-none-eabi/bin/../lib/gcc/arm-none-eabi/9.2.1/../../../../arm-none-eabi/lib/thumb/v7-m/nofp\libg.a(lib_a-closer.o)
 .text          0x00000000        0x0 d:/environment/gcc-arm-none-eabi/bin/../lib/gcc/arm-none-eabi/9.2.1/../../../../arm-none-eabi/lib/thumb/v7-m/nofp\libg.a(lib_a-fclose.o)
 .data          0x00000000        0x0 d:/environment/gcc-arm-none-eabi/bin/../lib/gcc/arm-none-eabi/9.2.1/../../../../arm-none-eabi/lib/thumb/v7-m/nofp\libg.a(lib_a-fclose.o)
 .bss           0x00000000        0x0 d:/environment/gcc-arm-none-eabi/bin/../lib/gcc/arm-none-eabi/9.2.1/../../../../arm-none-eabi/lib/thumb/v7-m/nofp\libg.a(lib_a-fclose.o)
 .text.fclose   0x00000000       0x10 d:/environment/gcc-arm-none-eabi/bin/../lib/gcc/arm-none-eabi/9.2.1/../../../../arm-none-eabi/lib/thumb/v7-m/nofp\libg.a(lib_a-fclose.o)
 .text          0x00000000        0x0 d:/environment/gcc-arm-none-eabi/bin/../lib/gcc/arm-none-eabi/9.2.1/../../../../arm-none-eabi/lib/thumb/v7-m/nofp\libg.a(lib_a-fputwc.o)
 .data          0x00000000        0x0 d:/environment/gcc-arm-none-eabi/bin/../lib/gcc/arm-none-eabi/9.2.1/../../../../arm-none-eabi/lib/thumb/v7-m/nofp\libg.a(lib_a-fputwc.o)
 .bss           0x00000000        0x0 d:/environment/gcc-arm-none-eabi/bin/../lib/gcc/arm-none-eabi/9.2.1/../../../../arm-none-eabi/lib/thumb/v7-m/nofp\libg.a(lib_a-fputwc.o)
 .text.fputwc   0x00000000       0x38 d:/environment/gcc-arm-none-eabi/bin/../lib/gcc/arm-none-eabi/9.2.1/../../../../arm-none-eabi/lib/thumb/v7-m/nofp\libg.a(lib_a-fputwc.o)
 .text          0x00000000        0x0 d:/environment/gcc-arm-none-eabi/bin/../lib/gcc/arm-none-eabi/9.2.1/../../../../arm-none-eabi/lib/thumb/v7-m/nofp\libg.a(lib_a-fstatr.o)
 .data          0x00000000        0x0 d:/environment/gcc-arm-none-eabi/bin/../lib/gcc/arm-none-eabi/9.2.1/../../../../arm-none-eabi/lib/thumb/v7-m/nofp\libg.a(lib_a-fstatr.o)
 .bss           0x00000000        0x0 d:/environment/gcc-arm-none-eabi/bin/../lib/gcc/arm-none-eabi/9.2.1/../../../../arm-none-eabi/lib/thumb/v7-m/nofp\libg.a(lib_a-fstatr.o)
 .text          0x00000000        0x0 d:/environment/gcc-arm-none-eabi/bin/../lib/gcc/arm-none-eabi/9.2.1/../../../../arm-none-eabi/lib/thumb/v7-m/nofp\libg.a(lib_a-isattyr.o)
 .data          0x00000000        0x0 d:/environment/gcc-arm-none-eabi/bin/../lib/gcc/arm-none-eabi/9.2.1/../../../../arm-none-eabi/lib/thumb/v7-m/nofp\libg.a(lib_a-isattyr.o)
 .bss           0x00000000        0x0 d:/environment/gcc-arm-none-eabi/bin/../lib/gcc/arm-none-eabi/9.2.1/../../../../arm-none-eabi/lib/thumb/v7-m/nofp\libg.a(lib_a-isattyr.o)
 .text          0x00000000        0x0 d:/environment/gcc-arm-none-eabi/bin/../lib/gcc/arm-none-eabi/9.2.1/../../../../arm-none-eabi/lib/thumb/v7-m/nofp\libg.a(lib_a-locale.o)
 .data          0x00000000        0x0 d:/environment/gcc-arm-none-eabi/bin/../lib/gcc/arm-none-eabi/9.2.1/../../../../arm-none-eabi/lib/thumb/v7-m/nofp\libg.a(lib_a-locale.o)
 .bss           0x00000000        0x0 d:/environment/gcc-arm-none-eabi/bin/../lib/gcc/arm-none-eabi/9.2.1/../../../../arm-none-eabi/lib/thumb/v7-m/nofp\libg.a(lib_a-locale.o)
 .text._setlocale_r
                0x00000000       0x40 d:/environment/gcc-arm-none-eabi/bin/../lib/gcc/arm-none-eabi/9.2.1/../../../../arm-none-eabi/lib/thumb/v7-m/nofp\libg.a(lib_a-locale.o)
 .text.setlocale
                0x00000000       0x10 d:/environment/gcc-arm-none-eabi/bin/../lib/gcc/arm-none-eabi/9.2.1/../../../../arm-none-eabi/lib/thumb/v7-m/nofp\libg.a(lib_a-locale.o)
 .bss._PathLocale
                0x00000000        0x4 d:/environment/gcc-arm-none-eabi/bin/../lib/gcc/arm-none-eabi/9.2.1/../../../../arm-none-eabi/lib/thumb/v7-m/nofp\libg.a(lib_a-locale.o)
 .text          0x00000000        0x0 d:/environment/gcc-arm-none-eabi/bin/../lib/gcc/arm-none-eabi/9.2.1/../../../../arm-none-eabi/lib/thumb/v7-m/nofp\libg.a(lib_a-lseekr.o)
 .data          0x00000000        0x0 d:/environment/gcc-arm-none-eabi/bin/../lib/gcc/arm-none-eabi/9.2.1/../../../../arm-none-eabi/lib/thumb/v7-m/nofp\libg.a(lib_a-lseekr.o)
 .bss           0x00000000        0x0 d:/environment/gcc-arm-none-eabi/bin/../lib/gcc/arm-none-eabi/9.2.1/../../../../arm-none-eabi/lib/thumb/v7-m/nofp\libg.a(lib_a-lseekr.o)
 .text          0x00000000        0x0 d:/environment/gcc-arm-none-eabi/bin/../lib/gcc/arm-none-eabi/9.2.1/../../../../arm-none-eabi/lib/thumb/v7-m/nofp\libg.a(lib_a-mbtowc_r.o)
 .data          0x00000000        0x0 d:/environment/gcc-arm-none-eabi/bin/../lib/gcc/arm-none-eabi/9.2.1/../../../../arm-none-eabi/lib/thumb/v7-m/nofp\libg.a(lib_a-mbtowc_r.o)
 .bss           0x00000000        0x0 d:/environment/gcc-arm-none-eabi/bin/../lib/gcc/arm-none-eabi/9.2.1/../../../../arm-none-eabi/lib/thumb/v7-m/nofp\libg.a(lib_a-mbtowc_r.o)
 .text._mbtowc_r
                0x00000000       0x14 d:/environment/gcc-arm-none-eabi/bin/../lib/gcc/arm-none-eabi/9.2.1/../../../../arm-none-eabi/lib/thumb/v7-m/nofp\libg.a(lib_a-mbtowc_r.o)
 .text          0x00000000        0x0 d:/environment/gcc-arm-none-eabi/bin/../lib/gcc/arm-none-eabi/9.2.1/../../../../arm-none-eabi/lib/thumb/v7-m/nofp\libg.a(lib_a-readr.o)
 .data          0x00000000        0x0 d:/environment/gcc-arm-none-eabi/bin/../lib/gcc/arm-none-eabi/9.2.1/../../../../arm-none-eabi/lib/thumb/v7-m/nofp\libg.a(lib_a-readr.o)
 .bss           0x00000000        0x0 d:/environment/gcc-arm-none-eabi/bin/../lib/gcc/arm-none-eabi/9.2.1/../../../../arm-none-eabi/lib/thumb/v7-m/nofp\libg.a(lib_a-readr.o)
 .text          0x00000000        0x0 d:/environment/gcc-arm-none-eabi/bin/../lib/gcc/arm-none-eabi/9.2.1/../../../../arm-none-eabi/lib/thumb/v7-m/nofp\libg.a(lib_a-reent.o)
 .data          0x00000000        0x0 d:/environment/gcc-arm-none-eabi/bin/../lib/gcc/arm-none-eabi/9.2.1/../../../../arm-none-eabi/lib/thumb/v7-m/nofp\libg.a(lib_a-reent.o)
 .bss           0x00000000        0x0 d:/environment/gcc-arm-none-eabi/bin/../lib/gcc/arm-none-eabi/9.2.1/../../../../arm-none-eabi/lib/thumb/v7-m/nofp\libg.a(lib_a-reent.o)
 .text.cleanup_glue
                0x00000000       0x1c d:/environment/gcc-arm-none-eabi/bin/../lib/gcc/arm-none-eabi/9.2.1/../../../../arm-none-eabi/lib/thumb/v7-m/nofp\libg.a(lib_a-reent.o)
 .text._reclaim_reent
                0x00000000       0x84 d:/environment/gcc-arm-none-eabi/bin/../lib/gcc/arm-none-eabi/9.2.1/../../../../arm-none-eabi/lib/thumb/v7-m/nofp\libg.a(lib_a-reent.o)
 .text          0x00000000      0x1bc d:/environment/gcc-arm-none-eabi/bin/../lib/gcc/arm-none-eabi/9.2.1/../../../../arm-none-eabi/lib/thumb/v7-m/nofp\libg.a(lib_a-strcmp.o)
 .data          0x00000000        0x0 d:/environment/gcc-arm-none-eabi/bin/../lib/gcc/arm-none-eabi/9.2.1/../../../../arm-none-eabi/lib/thumb/v7-m/nofp\libg.a(lib_a-strcmp.o)
 .bss           0x00000000        0x0 d:/environment/gcc-arm-none-eabi/bin/../lib/gcc/arm-none-eabi/9.2.1/../../../../arm-none-eabi/lib/thumb/v7-m/nofp\libg.a(lib_a-strcmp.o)
 .debug_frame   0x00000000       0x34 d:/environment/gcc-arm-none-eabi/bin/../lib/gcc/arm-none-eabi/9.2.1/../../../../arm-none-eabi/lib/thumb/v7-m/nofp\libg.a(lib_a-strcmp.o)
 .ARM.attributes
                0x00000000       0x1b d:/environment/gcc-arm-none-eabi/bin/../lib/gcc/arm-none-eabi/9.2.1/../../../../arm-none-eabi/lib/thumb/v7-m/nofp\libg.a(lib_a-strcmp.o)
 .text          0x00000000        0x0 d:/environment/gcc-arm-none-eabi/bin/../lib/gcc/arm-none-eabi/9.2.1/../../../../arm-none-eabi/lib/thumb/v7-m/nofp\libg.a(lib_a-wbuf.o)
 .data          0x00000000        0x0 d:/environment/gcc-arm-none-eabi/bin/../lib/gcc/arm-none-eabi/9.2.1/../../../../arm-none-eabi/lib/thumb/v7-m/nofp\libg.a(lib_a-wbuf.o)
 .bss           0x00000000        0x0 d:/environment/gcc-arm-none-eabi/bin/../lib/gcc/arm-none-eabi/9.2.1/../../../../arm-none-eabi/lib/thumb/v7-m/nofp\libg.a(lib_a-wbuf.o)
 .text.__swbuf  0x00000000       0x10 d:/environment/gcc-arm-none-eabi/bin/../lib/gcc/arm-none-eabi/9.2.1/../../../../arm-none-eabi/lib/thumb/v7-m/nofp\libg.a(lib_a-wbuf.o)
 .text          0x00000000        0x0 d:/environment/gcc-arm-none-eabi/bin/../lib/gcc/arm-none-eabi/9.2.1/../../../../arm-none-eabi/lib/thumb/v7-m/nofp\libg.a(lib_a-wcrtomb.o)
 .data          0x00000000        0x0 d:/environment/gcc-arm-none-eabi/bin/../lib/gcc/arm-none-eabi/9.2.1/../../../../arm-none-eabi/lib/thumb/v7-m/nofp\libg.a(lib_a-wcrtomb.o)
 .bss           0x00000000        0x0 d:/environment/gcc-arm-none-eabi/bin/../lib/gcc/arm-none-eabi/9.2.1/../../../../arm-none-eabi/lib/thumb/v7-m/nofp\libg.a(lib_a-wcrtomb.o)
 .text.wcrtomb  0x00000000       0x4c d:/environment/gcc-arm-none-eabi/bin/../lib/gcc/arm-none-eabi/9.2.1/../../../../arm-none-eabi/lib/thumb/v7-m/nofp\libg.a(lib_a-wcrtomb.o)
 .text          0x00000000        0x0 d:/environment/gcc-arm-none-eabi/bin/../lib/gcc/arm-none-eabi/9.2.1/../../../../arm-none-eabi/lib/thumb/v7-m/nofp\libg.a(lib_a-wctomb_r.o)
 .data          0x00000000        0x0 d:/environment/gcc-arm-none-eabi/bin/../lib/gcc/arm-none-eabi/9.2.1/../../../../arm-none-eabi/lib/thumb/v7-m/nofp\libg.a(lib_a-wctomb_r.o)
 .bss           0x00000000        0x0 d:/environment/gcc-arm-none-eabi/bin/../lib/gcc/arm-none-eabi/9.2.1/../../../../arm-none-eabi/lib/thumb/v7-m/nofp\libg.a(lib_a-wctomb_r.o)
 .text._wctomb_r
                0x00000000       0x14 d:/environment/gcc-arm-none-eabi/bin/../lib/gcc/arm-none-eabi/9.2.1/../../../../arm-none-eabi/lib/thumb/v7-m/nofp\libg.a(lib_a-wctomb_r.o)
 .text          0x00000000        0x0 d:/environment/gcc-arm-none-eabi/bin/../lib/gcc/arm-none-eabi/9.2.1/../../../../arm-none-eabi/lib/thumb/v7-m/nofp\libg.a(lib_a-ctype_.o)
 .data          0x00000000        0x0 d:/environment/gcc-arm-none-eabi/bin/../lib/gcc/arm-none-eabi/9.2.1/../../../../arm-none-eabi/lib/thumb/v7-m/nofp\libg.a(lib_a-ctype_.o)
 .bss           0x00000000        0x0 d:/environment/gcc-arm-none-eabi/bin/../lib/gcc/arm-none-eabi/9.2.1/../../../../arm-none-eabi/lib/thumb/v7-m/nofp\libg.a(lib_a-ctype_.o)
 .data          0x00000000        0x0 d:/environment/gcc-arm-none-eabi/bin/../lib/gcc/arm-none-eabi/9.2.1/thumb/v7-m/nofp\libgcc.a(_arm_muldivdf3.o)
 .bss           0x00000000        0x0 d:/environment/gcc-arm-none-eabi/bin/../lib/gcc/arm-none-eabi/9.2.1/thumb/v7-m/nofp\libgcc.a(_arm_muldivdf3.o)
 .data          0x00000000        0x0 d:/environment/gcc-arm-none-eabi/bin/../lib/gcc/arm-none-eabi/9.2.1/thumb/v7-m/nofp\libgcc.a(_arm_cmpdf2.o)
 .bss           0x00000000        0x0 d:/environment/gcc-arm-none-eabi/bin/../lib/gcc/arm-none-eabi/9.2.1/thumb/v7-m/nofp\libgcc.a(_arm_cmpdf2.o)
 .data          0x00000000        0x0 d:/environment/gcc-arm-none-eabi/bin/../lib/gcc/arm-none-eabi/9.2.1/thumb/v7-m/nofp\libgcc.a(_arm_unorddf2.o)
 .bss           0x00000000        0x0 d:/environment/gcc-arm-none-eabi/bin/../lib/gcc/arm-none-eabi/9.2.1/thumb/v7-m/nofp\libgcc.a(_arm_unorddf2.o)
 .data          0x00000000        0x0 d:/environment/gcc-arm-none-eabi/bin/../lib/gcc/arm-none-eabi/9.2.1/thumb/v7-m/nofp\libgcc.a(_arm_fixdfsi.o)
 .bss           0x00000000        0x0 d:/environment/gcc-arm-none-eabi/bin/../lib/gcc/arm-none-eabi/9.2.1/thumb/v7-m/nofp\libgcc.a(_arm_fixdfsi.o)
 .data          0x00000000        0x0 d:/environment/gcc-arm-none-eabi/bin/../lib/gcc/arm-none-eabi/9.2.1/thumb/v7-m/nofp\libgcc.a(_aeabi_uldivmod.o)
 .bss           0x00000000        0x0 d:/environment/gcc-arm-none-eabi/bin/../lib/gcc/arm-none-eabi/9.2.1/thumb/v7-m/nofp\libgcc.a(_aeabi_uldivmod.o)
 .text          0x00000000        0x0 d:/environment/gcc-arm-none-eabi/bin/../lib/gcc/arm-none-eabi/9.2.1/thumb/v7-m/nofp/crtend.o
 .data          0x00000000        0x0 d:/environment/gcc-arm-none-eabi/bin/../lib/gcc/arm-none-eabi/9.2.1/thumb/v7-m/nofp/crtend.o
 .bss           0x00000000        0x0 d:/environment/gcc-arm-none-eabi/bin/../lib/gcc/arm-none-eabi/9.2.1/thumb/v7-m/nofp/crtend.o
 .eh_frame      0x00000000        0x4 d:/environment/gcc-arm-none-eabi/bin/../lib/gcc/arm-none-eabi/9.2.1/thumb/v7-m/nofp/crtend.o
 .ARM.attributes
                0x00000000       0x2d d:/environment/gcc-arm-none-eabi/bin/../lib/gcc/arm-none-eabi/9.2.1/thumb/v7-m/nofp/crtend.o
 .text          0x00000000        0x0 d:/environment/gcc-arm-none-eabi/bin/../lib/gcc/arm-none-eabi/9.2.1/thumb/v7-m/nofp/crtn.o
 .data          0x00000000        0x0 d:/environment/gcc-arm-none-eabi/bin/../lib/gcc/arm-none-eabi/9.2.1/thumb/v7-m/nofp/crtn.o
 .bss           0x00000000        0x0 d:/environment/gcc-arm-none-eabi/bin/../lib/gcc/arm-none-eabi/9.2.1/thumb/v7-m/nofp/crtn.o
 .text          0x00000000        0x0 d:/environment/gcc-arm-none-eabi/bin/../lib/gcc/arm-none-eabi/9.2.1/../../../../arm-none-eabi/lib/thumb/v7-m/nofp\libm.a(lib_a-w_asin.o)
 .data          0x00000000        0x0 d:/environment/gcc-arm-none-eabi/bin/../lib/gcc/arm-none-eabi/9.2.1/../../../../arm-none-eabi/lib/thumb/v7-m/nofp\libm.a(lib_a-w_asin.o)
 .bss           0x00000000        0x0 d:/environment/gcc-arm-none-eabi/bin/../lib/gcc/arm-none-eabi/9.2.1/../../../../arm-none-eabi/lib/thumb/v7-m/nofp\libm.a(lib_a-w_asin.o)
 .debug_frame   0x00000000       0x40 d:/environment/gcc-arm-none-eabi/bin/../lib/gcc/arm-none-eabi/9.2.1/../../../../arm-none-eabi/lib/thumb/v7-m/nofp\libm.a(lib_a-w_asin.o)
 .ARM.attributes
                0x00000000       0x2d d:/environment/gcc-arm-none-eabi/bin/../lib/gcc/arm-none-eabi/9.2.1/../../../../arm-none-eabi/lib/thumb/v7-m/nofp\libm.a(lib_a-w_asin.o)
 .text          0x00000000        0x0 d:/environment/gcc-arm-none-eabi/bin/../lib/gcc/arm-none-eabi/9.2.1/../../../../arm-none-eabi/lib/thumb/v7-m/nofp\libm.a(lib_a-w_atan2.o)
 .data          0x00000000        0x0 d:/environment/gcc-arm-none-eabi/bin/../lib/gcc/arm-none-eabi/9.2.1/../../../../arm-none-eabi/lib/thumb/v7-m/nofp\libm.a(lib_a-w_atan2.o)
 .bss           0x00000000        0x0 d:/environment/gcc-arm-none-eabi/bin/../lib/gcc/arm-none-eabi/9.2.1/../../../../arm-none-eabi/lib/thumb/v7-m/nofp\libm.a(lib_a-w_atan2.o)
 .debug_frame   0x00000000       0x20 d:/environment/gcc-arm-none-eabi/bin/../lib/gcc/arm-none-eabi/9.2.1/../../../../arm-none-eabi/lib/thumb/v7-m/nofp\libm.a(lib_a-w_atan2.o)
 .ARM.attributes
                0x00000000       0x2d d:/environment/gcc-arm-none-eabi/bin/../lib/gcc/arm-none-eabi/9.2.1/../../../../arm-none-eabi/lib/thumb/v7-m/nofp\libm.a(lib_a-w_atan2.o)
 .text          0x00000000        0x0 d:/environment/gcc-arm-none-eabi/bin/../lib/gcc/arm-none-eabi/9.2.1/../../../../arm-none-eabi/lib/thumb/v7-m/nofp\libm.a(lib_a-e_asin.o)
 .data          0x00000000        0x0 d:/environment/gcc-arm-none-eabi/bin/../lib/gcc/arm-none-eabi/9.2.1/../../../../arm-none-eabi/lib/thumb/v7-m/nofp\libm.a(lib_a-e_asin.o)
 .bss           0x00000000        0x0 d:/environment/gcc-arm-none-eabi/bin/../lib/gcc/arm-none-eabi/9.2.1/../../../../arm-none-eabi/lib/thumb/v7-m/nofp\libm.a(lib_a-e_asin.o)
 .debug_frame   0x00000000       0x50 d:/environment/gcc-arm-none-eabi/bin/../lib/gcc/arm-none-eabi/9.2.1/../../../../arm-none-eabi/lib/thumb/v7-m/nofp\libm.a(lib_a-e_asin.o)
 .ARM.attributes
                0x00000000       0x2d d:/environment/gcc-arm-none-eabi/bin/../lib/gcc/arm-none-eabi/9.2.1/../../../../arm-none-eabi/lib/thumb/v7-m/nofp\libm.a(lib_a-e_asin.o)
 .text          0x00000000        0x0 d:/environment/gcc-arm-none-eabi/bin/../lib/gcc/arm-none-eabi/9.2.1/../../../../arm-none-eabi/lib/thumb/v7-m/nofp\libm.a(lib_a-e_atan2.o)
 .data          0x00000000        0x0 d:/environment/gcc-arm-none-eabi/bin/../lib/gcc/arm-none-eabi/9.2.1/../../../../arm-none-eabi/lib/thumb/v7-m/nofp\libm.a(lib_a-e_atan2.o)
 .bss           0x00000000        0x0 d:/environment/gcc-arm-none-eabi/bin/../lib/gcc/arm-none-eabi/9.2.1/../../../../arm-none-eabi/lib/thumb/v7-m/nofp\libm.a(lib_a-e_atan2.o)
 .debug_frame   0x00000000       0x48 d:/environment/gcc-arm-none-eabi/bin/../lib/gcc/arm-none-eabi/9.2.1/../../../../arm-none-eabi/lib/thumb/v7-m/nofp\libm.a(lib_a-e_atan2.o)
 .ARM.attributes
                0x00000000       0x2d d:/environment/gcc-arm-none-eabi/bin/../lib/gcc/arm-none-eabi/9.2.1/../../../../arm-none-eabi/lib/thumb/v7-m/nofp\libm.a(lib_a-e_atan2.o)
 .text          0x00000000        0x0 d:/environment/gcc-arm-none-eabi/bin/../lib/gcc/arm-none-eabi/9.2.1/../../../../arm-none-eabi/lib/thumb/v7-m/nofp\libm.a(lib_a-e_sqrt.o)
 .data          0x00000000        0x0 d:/environment/gcc-arm-none-eabi/bin/../lib/gcc/arm-none-eabi/9.2.1/../../../../arm-none-eabi/lib/thumb/v7-m/nofp\libm.a(lib_a-e_sqrt.o)
 .bss           0x00000000        0x0 d:/environment/gcc-arm-none-eabi/bin/../lib/gcc/arm-none-eabi/9.2.1/../../../../arm-none-eabi/lib/thumb/v7-m/nofp\libm.a(lib_a-e_sqrt.o)
 .debug_frame   0x00000000       0x30 d:/environment/gcc-arm-none-eabi/bin/../lib/gcc/arm-none-eabi/9.2.1/../../../../arm-none-eabi/lib/thumb/v7-m/nofp\libm.a(lib_a-e_sqrt.o)
 .ARM.attributes
                0x00000000       0x2d d:/environment/gcc-arm-none-eabi/bin/../lib/gcc/arm-none-eabi/9.2.1/../../../../arm-none-eabi/lib/thumb/v7-m/nofp\libm.a(lib_a-e_sqrt.o)
 .text          0x00000000        0x0 d:/environment/gcc-arm-none-eabi/bin/../lib/gcc/arm-none-eabi/9.2.1/../../../../arm-none-eabi/lib/thumb/v7-m/nofp\libm.a(lib_a-s_atan.o)
 .data          0x00000000        0x0 d:/environment/gcc-arm-none-eabi/bin/../lib/gcc/arm-none-eabi/9.2.1/../../../../arm-none-eabi/lib/thumb/v7-m/nofp\libm.a(lib_a-s_atan.o)
 .bss           0x00000000        0x0 d:/environment/gcc-arm-none-eabi/bin/../lib/gcc/arm-none-eabi/9.2.1/../../../../arm-none-eabi/lib/thumb/v7-m/nofp\libm.a(lib_a-s_atan.o)
 .debug_frame   0x00000000       0x54 d:/environment/gcc-arm-none-eabi/bin/../lib/gcc/arm-none-eabi/9.2.1/../../../../arm-none-eabi/lib/thumb/v7-m/nofp\libm.a(lib_a-s_atan.o)
 .ARM.attributes
                0x00000000       0x2d d:/environment/gcc-arm-none-eabi/bin/../lib/gcc/arm-none-eabi/9.2.1/../../../../arm-none-eabi/lib/thumb/v7-m/nofp\libm.a(lib_a-s_atan.o)
 .text          0x00000000        0x0 d:/environment/gcc-arm-none-eabi/bin/../lib/gcc/arm-none-eabi/9.2.1/../../../../arm-none-eabi/lib/thumb/v7-m/nofp\libm.a(lib_a-s_fabs.o)
 .data          0x00000000        0x0 d:/environment/gcc-arm-none-eabi/bin/../lib/gcc/arm-none-eabi/9.2.1/../../../../arm-none-eabi/lib/thumb/v7-m/nofp\libm.a(lib_a-s_fabs.o)
 .bss           0x00000000        0x0 d:/environment/gcc-arm-none-eabi/bin/../lib/gcc/arm-none-eabi/9.2.1/../../../../arm-none-eabi/lib/thumb/v7-m/nofp\libm.a(lib_a-s_fabs.o)
 .debug_frame   0x00000000       0x20 d:/environment/gcc-arm-none-eabi/bin/../lib/gcc/arm-none-eabi/9.2.1/../../../../arm-none-eabi/lib/thumb/v7-m/nofp\libm.a(lib_a-s_fabs.o)
 .ARM.attributes
                0x00000000       0x2d d:/environment/gcc-arm-none-eabi/bin/../lib/gcc/arm-none-eabi/9.2.1/../../../../arm-none-eabi/lib/thumb/v7-m/nofp\libm.a(lib_a-s_fabs.o)
 .text          0x00000000        0x0 d:/environment/gcc-arm-none-eabi/bin/../lib/gcc/arm-none-eabi/9.2.1/../../../../arm-none-eabi/lib/thumb/v7-m/nofp\libm.a(lib_a-s_lib_ver.o)
 .data          0x00000000        0x0 d:/environment/gcc-arm-none-eabi/bin/../lib/gcc/arm-none-eabi/9.2.1/../../../../arm-none-eabi/lib/thumb/v7-m/nofp\libm.a(lib_a-s_lib_ver.o)
 .bss           0x00000000        0x0 d:/environment/gcc-arm-none-eabi/bin/../lib/gcc/arm-none-eabi/9.2.1/../../../../arm-none-eabi/lib/thumb/v7-m/nofp\libm.a(lib_a-s_lib_ver.o)
 .ARM.attributes
                0x00000000       0x2d d:/environment/gcc-arm-none-eabi/bin/../lib/gcc/arm-none-eabi/9.2.1/../../../../arm-none-eabi/lib/thumb/v7-m/nofp\libm.a(lib_a-s_lib_ver.o)
 .text          0x00000000        0x0 d:/environment/gcc-arm-none-eabi/bin/../lib/gcc/arm-none-eabi/9.2.1/../../../../arm-none-eabi/lib/thumb/v7-m/nofp\libm.a(lib_a-s_matherr.o)
 .data          0x00000000        0x0 d:/environment/gcc-arm-none-eabi/bin/../lib/gcc/arm-none-eabi/9.2.1/../../../../arm-none-eabi/lib/thumb/v7-m/nofp\libm.a(lib_a-s_matherr.o)
 .bss           0x00000000        0x0 d:/environment/gcc-arm-none-eabi/bin/../lib/gcc/arm-none-eabi/9.2.1/../../../../arm-none-eabi/lib/thumb/v7-m/nofp\libm.a(lib_a-s_matherr.o)
 .debug_frame   0x00000000       0x20 d:/environment/gcc-arm-none-eabi/bin/../lib/gcc/arm-none-eabi/9.2.1/../../../../arm-none-eabi/lib/thumb/v7-m/nofp\libm.a(lib_a-s_matherr.o)
 .ARM.attributes
                0x00000000       0x2d d:/environment/gcc-arm-none-eabi/bin/../lib/gcc/arm-none-eabi/9.2.1/../../../../arm-none-eabi/lib/thumb/v7-m/nofp\libm.a(lib_a-s_matherr.o)
 .text          0x00000000        0x0 d:/environment/gcc-arm-none-eabi/bin/../lib/gcc/arm-none-eabi/9.2.1/../../../../arm-none-eabi/lib/thumb/v7-m/nofp\libm.a(lib_a-s_nan.o)
 .data          0x00000000        0x0 d:/environment/gcc-arm-none-eabi/bin/../lib/gcc/arm-none-eabi/9.2.1/../../../../arm-none-eabi/lib/thumb/v7-m/nofp\libm.a(lib_a-s_nan.o)
 .bss           0x00000000        0x0 d:/environment/gcc-arm-none-eabi/bin/../lib/gcc/arm-none-eabi/9.2.1/../../../../arm-none-eabi/lib/thumb/v7-m/nofp\libm.a(lib_a-s_nan.o)
 .debug_frame   0x00000000       0x20 d:/environment/gcc-arm-none-eabi/bin/../lib/gcc/arm-none-eabi/9.2.1/../../../../arm-none-eabi/lib/thumb/v7-m/nofp\libm.a(lib_a-s_nan.o)
 .ARM.attributes
                0x00000000       0x2d d:/environment/gcc-arm-none-eabi/bin/../lib/gcc/arm-none-eabi/9.2.1/../../../../arm-none-eabi/lib/thumb/v7-m/nofp\libm.a(lib_a-s_nan.o)

Memory Configuration

Name             Origin             Length             Attributes
RAM              0x20000000         0x00005000         xrw
FLASH            0x08000000         0x00010000         xr
*default*        0x00000000         0xffffffff

Linker script and memory map

LOAD d:/environment/gcc-arm-none-eabi/bin/../lib/gcc/arm-none-eabi/9.2.1/thumb/v7-m/nofp/crti.o
LOAD d:/environment/gcc-arm-none-eabi/bin/../lib/gcc/arm-none-eabi/9.2.1/thumb/v7-m/nofp/crtbegin.o
LOAD d:/environment/gcc-arm-none-eabi/bin/../lib/gcc/arm-none-eabi/9.2.1/../../../../arm-none-eabi/lib/thumb/v7-m/nofp/crt0.o
LOAD CMakeFiles/13_demo_OLED_FLOAT.elf.dir/Core/Src/gpio.c.obj
LOAD CMakeFiles/13_demo_OLED_FLOAT.elf.dir/Core/Src/i2c.c.obj
LOAD CMakeFiles/13_demo_OLED_FLOAT.elf.dir/Core/Src/main.c.obj
LOAD CMakeFiles/13_demo_OLED_FLOAT.elf.dir/Core/Src/mpu6050.c.obj
LOAD CMakeFiles/13_demo_OLED_FLOAT.elf.dir/Core/Src/oled12864.c.obj
LOAD CMakeFiles/13_demo_OLED_FLOAT.elf.dir/Core/Src/stm32f1xx_hal_msp.c.obj
LOAD CMakeFiles/13_demo_OLED_FLOAT.elf.dir/Core/Src/stm32f1xx_it.c.obj
LOAD CMakeFiles/13_demo_OLED_FLOAT.elf.dir/Core/Src/syscalls.c.obj
LOAD CMakeFiles/13_demo_OLED_FLOAT.elf.dir/Core/Src/system_stm32f1xx.c.obj
LOAD CMakeFiles/13_demo_OLED_FLOAT.elf.dir/Core/Src/usart.c.obj
LOAD CMakeFiles/13_demo_OLED_FLOAT.elf.dir/Drivers/DMP/DMP_test.c.obj
LOAD CMakeFiles/13_demo_OLED_FLOAT.elf.dir/Drivers/DMP/inv_mpu.c.obj
LOAD CMakeFiles/13_demo_OLED_FLOAT.elf.dir/Drivers/DMP/inv_mpu_dmp_motion_driver.c.obj
LOAD CMakeFiles/13_demo_OLED_FLOAT.elf.dir/Drivers/STM32F1xx_HAL_Driver/Src/stm32f1xx_hal.c.obj
LOAD CMakeFiles/13_demo_OLED_FLOAT.elf.dir/Drivers/STM32F1xx_HAL_Driver/Src/stm32f1xx_hal_cortex.c.obj
LOAD CMakeFiles/13_demo_OLED_FLOAT.elf.dir/Drivers/STM32F1xx_HAL_Driver/Src/stm32f1xx_hal_dma.c.obj
LOAD CMakeFiles/13_demo_OLED_FLOAT.elf.dir/Drivers/STM32F1xx_HAL_Driver/Src/stm32f1xx_hal_exti.c.obj
LOAD CMakeFiles/13_demo_OLED_FLOAT.elf.dir/Drivers/STM32F1xx_HAL_Driver/Src/stm32f1xx_hal_flash.c.obj
LOAD CMakeFiles/13_demo_OLED_FLOAT.elf.dir/Drivers/STM32F1xx_HAL_Driver/Src/stm32f1xx_hal_flash_ex.c.obj
LOAD CMakeFiles/13_demo_OLED_FLOAT.elf.dir/Drivers/STM32F1xx_HAL_Driver/Src/stm32f1xx_hal_gpio.c.obj
LOAD CMakeFiles/13_demo_OLED_FLOAT.elf.dir/Drivers/STM32F1xx_HAL_Driver/Src/stm32f1xx_hal_gpio_ex.c.obj
LOAD CMakeFiles/13_demo_OLED_FLOAT.elf.dir/Drivers/STM32F1xx_HAL_Driver/Src/stm32f1xx_hal_i2c.c.obj
LOAD CMakeFiles/13_demo_OLED_FLOAT.elf.dir/Drivers/STM32F1xx_HAL_Driver/Src/stm32f1xx_hal_pwr.c.obj
LOAD CMakeFiles/13_demo_OLED_FLOAT.elf.dir/Drivers/STM32F1xx_HAL_Driver/Src/stm32f1xx_hal_rcc.c.obj
LOAD CMakeFiles/13_demo_OLED_FLOAT.elf.dir/Drivers/STM32F1xx_HAL_Driver/Src/stm32f1xx_hal_rcc_ex.c.obj
LOAD CMakeFiles/13_demo_OLED_FLOAT.elf.dir/Drivers/STM32F1xx_HAL_Driver/Src/stm32f1xx_hal_tim.c.obj
LOAD CMakeFiles/13_demo_OLED_FLOAT.elf.dir/Drivers/STM32F1xx_HAL_Driver/Src/stm32f1xx_hal_tim_ex.c.obj
LOAD CMakeFiles/13_demo_OLED_FLOAT.elf.dir/Drivers/STM32F1xx_HAL_Driver/Src/stm32f1xx_hal_uart.c.obj
LOAD CMakeFiles/13_demo_OLED_FLOAT.elf.dir/startup/startup_stm32f103xb.s.obj
START GROUP
LOAD d:/environment/gcc-arm-none-eabi/bin/../lib/gcc/arm-none-eabi/9.2.1/thumb/v7-m/nofp\libgcc.a
LOAD d:/environment/gcc-arm-none-eabi/bin/../lib/gcc/arm-none-eabi/9.2.1/../../../../arm-none-eabi/lib/thumb/v7-m/nofp\libg.a
LOAD d:/environment/gcc-arm-none-eabi/bin/../lib/gcc/arm-none-eabi/9.2.1/../../../../arm-none-eabi/lib/thumb/v7-m/nofp\libc.a
END GROUP
LOAD d:/environment/gcc-arm-none-eabi/bin/../lib/gcc/arm-none-eabi/9.2.1/thumb/v7-m/nofp/crtend.o
LOAD d:/environment/gcc-arm-none-eabi/bin/../lib/gcc/arm-none-eabi/9.2.1/thumb/v7-m/nofp/crtn.o
                0x20005000                _estack = (ORIGIN (RAM) + LENGTH (RAM))
                0x00000200                _Min_Heap_Size = 0x200
                0x00000400                _Min_Stack_Size = 0x400

.isr_vector     0x08000000      0x10c
                0x08000000                . = ALIGN (0x4)
 *(.isr_vector)
 .isr_vector    0x08000000      0x10c CMakeFiles/13_demo_OLED_FLOAT.elf.dir/startup/startup_stm32f103xb.s.obj
                0x08000000                g_pfnVectors
                0x0800010c                . = ALIGN (0x4)

.text           0x08000110     0xbdec
                0x08000110                . = ALIGN (0x4)
 *(.text)
 .text          0x08000110       0x40 d:/environment/gcc-arm-none-eabi/bin/../lib/gcc/arm-none-eabi/9.2.1/thumb/v7-m/nofp/crtbegin.o
 .text          0x08000150      0x378 d:/environment/gcc-arm-none-eabi/bin/../lib/gcc/arm-none-eabi/9.2.1/thumb/v7-m/nofp\libgcc.a(_arm_addsubdf3.o)
                0x08000150                __aeabi_drsub
                0x08000158                __aeabi_dsub
                0x08000158                __subdf3
                0x0800015c                __aeabi_dadd
                0x0800015c                __adddf3
                0x080003d4                __floatunsidf
                0x080003d4                __aeabi_ui2d
                0x080003f4                __floatsidf
                0x080003f4                __aeabi_i2d
                0x08000418                __aeabi_f2d
                0x08000418                __extendsfdf2
                0x0800045c                __floatundidf
                0x0800045c                __aeabi_ul2d
                0x0800046c                __floatdidf
                0x0800046c                __aeabi_l2d
 .text          0x080004c8       0xa0 d:/environment/gcc-arm-none-eabi/bin/../lib/gcc/arm-none-eabi/9.2.1/thumb/v7-m/nofp\libgcc.a(_arm_truncdfsf2.o)
                0x080004c8                __truncdfsf2
                0x080004c8                __aeabi_d2f
 .text          0x08000568      0x21c d:/environment/gcc-arm-none-eabi/bin/../lib/gcc/arm-none-eabi/9.2.1/thumb/v7-m/nofp\libgcc.a(_arm_addsubsf3.o)
                0x08000568                __aeabi_frsub
                0x08000570                __subsf3
                0x08000570                __aeabi_fsub
                0x08000574                __aeabi_fadd
                0x08000574                __addsf3
                0x080006d4                __aeabi_ui2f
                0x080006d4                __floatunsisf
                0x080006dc                __aeabi_i2f
                0x080006dc                __floatsisf
                0x080006f8                __aeabi_ul2f
                0x080006f8                __floatundisf
                0x08000708                __aeabi_l2f
                0x08000708                __floatdisf
 .text          0x08000784      0x2a0 d:/environment/gcc-arm-none-eabi/bin/../lib/gcc/arm-none-eabi/9.2.1/thumb/v7-m/nofp\libgcc.a(_arm_muldivsf3.o)
                0x08000784                __mulsf3
                0x08000784                __aeabi_fmul
                0x080008ec                __aeabi_fdiv
                0x080008ec                __divsf3
 .text          0x08000a24       0xec d:/environment/gcc-arm-none-eabi/bin/../lib/gcc/arm-none-eabi/9.2.1/thumb/v7-m/nofp\libgcc.a(_arm_cmpsf2.o)
                0x08000a24                __gesf2
                0x08000a24                __gtsf2
                0x08000a2c                __lesf2
                0x08000a2c                __ltsf2
                0x08000a34                __nesf2
                0x08000a34                __eqsf2
                0x08000a34                __cmpsf2
                0x08000a94                __aeabi_cfrcmple
                0x08000a9c                __aeabi_cfcmpeq
                0x08000a9c                __aeabi_cfcmple
                0x08000aac                __aeabi_fcmpeq
                0x08000ac0                __aeabi_fcmplt
                0x08000ad4                __aeabi_fcmple
                0x08000ae8                __aeabi_fcmpge
                0x08000afc                __aeabi_fcmpgt
 .text          0x08000b10       0x4c d:/environment/gcc-arm-none-eabi/bin/../lib/gcc/arm-none-eabi/9.2.1/thumb/v7-m/nofp\libgcc.a(_arm_fixsfsi.o)
                0x08000b10                __aeabi_f2iz
                0x08000b10                __fixsfsi
 .text          0x08000b5c       0x40 d:/environment/gcc-arm-none-eabi/bin/../lib/gcc/arm-none-eabi/9.2.1/thumb/v7-m/nofp\libgcc.a(_arm_fixunssfsi.o)
                0x08000b5c                __fixunssfsi
                0x08000b5c                __aeabi_f2uiz
 .text          0x08000b9c       0xa0 d:/environment/gcc-arm-none-eabi/bin/../lib/gcc/arm-none-eabi/9.2.1/thumb/v7-m/nofp\libgcc.a(_aeabi_ldivmod.o)
                0x08000b9c                __aeabi_ldivmod
 .text          0x08000c3c      0x2c4 d:/environment/gcc-arm-none-eabi/bin/../lib/gcc/arm-none-eabi/9.2.1/thumb/v7-m/nofp\libgcc.a(_udivmoddi4.o)
                0x08000c3c                __udivmoddi4
 .text          0x08000f00        0x4 d:/environment/gcc-arm-none-eabi/bin/../lib/gcc/arm-none-eabi/9.2.1/thumb/v7-m/nofp\libgcc.a(_dvmd_tls.o)
                0x08000f00                __aeabi_idiv0
                0x08000f00                __aeabi_ldiv0
 .text          0x08000f04       0xec d:/environment/gcc-arm-none-eabi/bin/../lib/gcc/arm-none-eabi/9.2.1/../../../../arm-none-eabi/lib/thumb/v7-m/nofp\libg.a(lib_a-memcpy.o)
                0x08000f04                memcpy
 .text          0x08000ff0      0x424 d:/environment/gcc-arm-none-eabi/bin/../lib/gcc/arm-none-eabi/9.2.1/thumb/v7-m/nofp\libgcc.a(_arm_muldivdf3.o)
                0x08000ff0                __aeabi_dmul
                0x08000ff0                __muldf3
                0x08001244                __divdf3
                0x08001244                __aeabi_ddiv
 .text          0x08001414      0x110 d:/environment/gcc-arm-none-eabi/bin/../lib/gcc/arm-none-eabi/9.2.1/thumb/v7-m/nofp\libgcc.a(_arm_cmpdf2.o)
                0x08001414                __gtdf2
                0x08001414                __gedf2
                0x0800141c                __ltdf2
                0x0800141c                __ledf2
                0x08001424                __nedf2
                0x08001424                __eqdf2
                0x08001424                __cmpdf2
                0x080014a0                __aeabi_cdrcmple
                0x080014b0                __aeabi_cdcmpeq
                0x080014b0                __aeabi_cdcmple
                0x080014c0                __aeabi_dcmpeq
                0x080014d4                __aeabi_dcmplt
                0x080014e8                __aeabi_dcmple
                0x080014fc                __aeabi_dcmpge
                0x08001510                __aeabi_dcmpgt
 .text          0x08001524       0x2c d:/environment/gcc-arm-none-eabi/bin/../lib/gcc/arm-none-eabi/9.2.1/thumb/v7-m/nofp\libgcc.a(_arm_unorddf2.o)
                0x08001524                __unorddf2
                0x08001524                __aeabi_dcmpun
 .text          0x08001550       0x50 d:/environment/gcc-arm-none-eabi/bin/../lib/gcc/arm-none-eabi/9.2.1/thumb/v7-m/nofp\libgcc.a(_arm_fixdfsi.o)
                0x08001550                __aeabi_d2iz
                0x08001550                __fixdfsi
 .text          0x080015a0       0x30 d:/environment/gcc-arm-none-eabi/bin/../lib/gcc/arm-none-eabi/9.2.1/thumb/v7-m/nofp\libgcc.a(_aeabi_uldivmod.o)
                0x080015a0                __aeabi_uldivmod
 *(.text*)
 .text.MX_GPIO_Init
                0x080015d0       0xd8 CMakeFiles/13_demo_OLED_FLOAT.elf.dir/Core/Src/gpio.c.obj
                0x080015d0                MX_GPIO_Init
 .text.MX_I2C1_Init
                0x080016a8       0x3c CMakeFiles/13_demo_OLED_FLOAT.elf.dir/Core/Src/i2c.c.obj
                0x080016a8                MX_I2C1_Init
 .text.HAL_I2C_MspInit
                0x080016e4       0x64 CMakeFiles/13_demo_OLED_FLOAT.elf.dir/Core/Src/i2c.c.obj
                0x080016e4                HAL_I2C_MspInit
 .text.Error_Handler
                0x08001748        0x4 CMakeFiles/13_demo_OLED_FLOAT.elf.dir/Core/Src/main.c.obj
                0x08001748                Error_Handler
 .text.SystemClock_Config
                0x0800174c       0x62 CMakeFiles/13_demo_OLED_FLOAT.elf.dir/Core/Src/main.c.obj
                0x0800174c                SystemClock_Config
 *fill*         0x080017ae        0x2 
 .text.main     0x080017b0      0x180 CMakeFiles/13_demo_OLED_FLOAT.elf.dir/Core/Src/main.c.obj
                0x080017b0                main
 .text.IIC_Read
                0x08001930       0x20 CMakeFiles/13_demo_OLED_FLOAT.elf.dir/Core/Src/mpu6050.c.obj
                0x08001930                IIC_Read
 .text.MPU6050_Get
                0x08001950       0xc0 CMakeFiles/13_demo_OLED_FLOAT.elf.dir/Core/Src/mpu6050.c.obj
                0x08001950                MPU6050_Get
 .text.IIC_Start
                0x08001a10       0x34 CMakeFiles/13_demo_OLED_FLOAT.elf.dir/Core/Src/oled12864.c.obj
                0x08001a10                IIC_Start
 .text.IIC_Stop
                0x08001a44       0x28 CMakeFiles/13_demo_OLED_FLOAT.elf.dir/Core/Src/oled12864.c.obj
                0x08001a44                IIC_Stop
 .text.IIC_WaitAck
                0x08001a6c       0x20 CMakeFiles/13_demo_OLED_FLOAT.elf.dir/Core/Src/oled12864.c.obj
                0x08001a6c                IIC_WaitAck
 .text.IIC_WriteByte
                0x08001a8c       0x58 CMakeFiles/13_demo_OLED_FLOAT.elf.dir/Core/Src/oled12864.c.obj
                0x08001a8c                IIC_WriteByte
 .text.IIC_WriteCommand
                0x08001ae4       0x2c CMakeFiles/13_demo_OLED_FLOAT.elf.dir/Core/Src/oled12864.c.obj
                0x08001ae4                IIC_WriteCommand
 .text.IIC_WriteData
                0x08001b10       0x2c CMakeFiles/13_demo_OLED_FLOAT.elf.dir/Core/Src/oled12864.c.obj
                0x08001b10                IIC_WriteData
 .text.OLED_WR_Byte
                0x08001b3c       0x14 CMakeFiles/13_demo_OLED_FLOAT.elf.dir/Core/Src/oled12864.c.obj
                0x08001b3c                OLED_WR_Byte
 .text.OLED_FillPicture
                0x08001b50       0x42 CMakeFiles/13_demo_OLED_FLOAT.elf.dir/Core/Src/oled12864.c.obj
                0x08001b50                OLED_FillPicture
 .text.OLED_SetPos
                0x08001b92       0x26 CMakeFiles/13_demo_OLED_FLOAT.elf.dir/Core/Src/oled12864.c.obj
                0x08001b92                OLED_SetPos
 .text.OLED_Clear
                0x08001bb8       0x40 CMakeFiles/13_demo_OLED_FLOAT.elf.dir/Core/Src/oled12864.c.obj
                0x08001bb8                OLED_Clear
 .text.OLED_ShowChar
                0x08001bf8       0x94 CMakeFiles/13_demo_OLED_FLOAT.elf.dir/Core/Src/oled12864.c.obj
                0x08001bf8                OLED_ShowChar
 .text.oled_pow
                0x08001c8c       0x14 CMakeFiles/13_demo_OLED_FLOAT.elf.dir/Core/Src/oled12864.c.obj
                0x08001c8c                oled_pow
 .text.OLED_ShowString
                0x08001ca0       0x36 CMakeFiles/13_demo_OLED_FLOAT.elf.dir/Core/Src/oled12864.c.obj
                0x08001ca0                OLED_ShowString
 .text.OLED_Init
                0x08001cd6       0xe2 CMakeFiles/13_demo_OLED_FLOAT.elf.dir/Core/Src/oled12864.c.obj
                0x08001cd6                OLED_Init
 .text.OLED_Showdecimal
                0x08001db8      0x100 CMakeFiles/13_demo_OLED_FLOAT.elf.dir/Core/Src/oled12864.c.obj
                0x08001db8                OLED_Showdecimal
 .text.HAL_MspInit
                0x08001eb8       0x44 CMakeFiles/13_demo_OLED_FLOAT.elf.dir/Core/Src/stm32f1xx_hal_msp.c.obj
                0x08001eb8                HAL_MspInit
 .text.NMI_Handler
                0x08001efc        0x2 CMakeFiles/13_demo_OLED_FLOAT.elf.dir/Core/Src/stm32f1xx_it.c.obj
                0x08001efc                NMI_Handler
 .text.HardFault_Handler
                0x08001efe        0x2 CMakeFiles/13_demo_OLED_FLOAT.elf.dir/Core/Src/stm32f1xx_it.c.obj
                0x08001efe                HardFault_Handler
 .text.MemManage_Handler
                0x08001f00        0x2 CMakeFiles/13_demo_OLED_FLOAT.elf.dir/Core/Src/stm32f1xx_it.c.obj
                0x08001f00                MemManage_Handler
 .text.BusFault_Handler
                0x08001f02        0x2 CMakeFiles/13_demo_OLED_FLOAT.elf.dir/Core/Src/stm32f1xx_it.c.obj
                0x08001f02                BusFault_Handler
 .text.UsageFault_Handler
                0x08001f04        0x2 CMakeFiles/13_demo_OLED_FLOAT.elf.dir/Core/Src/stm32f1xx_it.c.obj
                0x08001f04                UsageFault_Handler
 .text.SVC_Handler
                0x08001f06        0x2 CMakeFiles/13_demo_OLED_FLOAT.elf.dir/Core/Src/stm32f1xx_it.c.obj
                0x08001f06                SVC_Handler
 .text.DebugMon_Handler
                0x08001f08        0x2 CMakeFiles/13_demo_OLED_FLOAT.elf.dir/Core/Src/stm32f1xx_it.c.obj
                0x08001f08                DebugMon_Handler
 .text.PendSV_Handler
                0x08001f0a        0x2 CMakeFiles/13_demo_OLED_FLOAT.elf.dir/Core/Src/stm32f1xx_it.c.obj
                0x08001f0a                PendSV_Handler
 .text.SysTick_Handler
                0x08001f0c        0x8 CMakeFiles/13_demo_OLED_FLOAT.elf.dir/Core/Src/stm32f1xx_it.c.obj
                0x08001f0c                SysTick_Handler
 .text._read    0x08001f14       0x20 CMakeFiles/13_demo_OLED_FLOAT.elf.dir/Core/Src/syscalls.c.obj
                0x08001f14                _read
 .text._write   0x08001f34       0x1c CMakeFiles/13_demo_OLED_FLOAT.elf.dir/Core/Src/syscalls.c.obj
                0x08001f34                _write
 .text._sbrk    0x08001f50       0x3c CMakeFiles/13_demo_OLED_FLOAT.elf.dir/Core/Src/syscalls.c.obj
                0x08001f50                _sbrk
 .text._close   0x08001f8c        0x6 CMakeFiles/13_demo_OLED_FLOAT.elf.dir/Core/Src/syscalls.c.obj
                0x08001f8c                _close
 .text._fstat   0x08001f92        0xa CMakeFiles/13_demo_OLED_FLOAT.elf.dir/Core/Src/syscalls.c.obj
                0x08001f92                _fstat
 .text._isatty  0x08001f9c        0x4 CMakeFiles/13_demo_OLED_FLOAT.elf.dir/Core/Src/syscalls.c.obj
                0x08001f9c                _isatty
 .text._lseek   0x08001fa0        0x4 CMakeFiles/13_demo_OLED_FLOAT.elf.dir/Core/Src/syscalls.c.obj
                0x08001fa0                _lseek
 .text.SystemInit
                0x08001fa4        0x2 CMakeFiles/13_demo_OLED_FLOAT.elf.dir/Core/Src/system_stm32f1xx.c.obj
                0x08001fa4                SystemInit
 *fill*         0x08001fa6        0x2 
 .text.MX_USART1_UART_Init
                0x08001fa8       0x34 CMakeFiles/13_demo_OLED_FLOAT.elf.dir/Core/Src/usart.c.obj
                0x08001fa8                MX_USART1_UART_Init
 .text.HAL_UART_MspInit
                0x08001fdc       0x78 CMakeFiles/13_demo_OLED_FLOAT.elf.dir/Core/Src/usart.c.obj
                0x08001fdc                HAL_UART_MspInit
 .text.__io_putchar
                0x08002054       0x20 CMakeFiles/13_demo_OLED_FLOAT.elf.dir/Core/Src/usart.c.obj
                0x08002054                __io_putchar
 .text.run_self_test
                0x08002074       0x88 CMakeFiles/13_demo_OLED_FLOAT.elf.dir/Drivers/DMP/DMP_test.c.obj
                0x08002074                run_self_test
 .text.inv_row_2_scale
                0x080020fc       0x3a CMakeFiles/13_demo_OLED_FLOAT.elf.dir/Drivers/DMP/DMP_test.c.obj
                0x080020fc                inv_row_2_scale
 .text.inv_orientation_matrix_to_scalar
                0x08002136       0x24 CMakeFiles/13_demo_OLED_FLOAT.elf.dir/Drivers/DMP/DMP_test.c.obj
                0x08002136                inv_orientation_matrix_to_scalar
 *fill*         0x0800215a        0x2 
 .text.mpu_dmp_init
                0x0800215c       0xa0 CMakeFiles/13_demo_OLED_FLOAT.elf.dir/Drivers/DMP/DMP_test.c.obj
                0x0800215c                mpu_dmp_init
 *fill*         0x080021fc        0x4 
 .text.mpu_dmp_get_data
                0x08002200      0x1c8 CMakeFiles/13_demo_OLED_FLOAT.elf.dir/Drivers/DMP/DMP_test.c.obj
                0x08002200                mpu_dmp_get_data
 .text.DMP_test
                0x080023c8      0x14c CMakeFiles/13_demo_OLED_FLOAT.elf.dir/Drivers/DMP/DMP_test.c.obj
                0x080023c8                DMP_test
 .text.get_accel_prod_shift
                0x08002514       0xcc CMakeFiles/13_demo_OLED_FLOAT.elf.dir/Drivers/DMP/inv_mpu.c.obj
 .text.accel_self_test
                0x080025e0       0xb4 CMakeFiles/13_demo_OLED_FLOAT.elf.dir/Drivers/DMP/inv_mpu.c.obj
 .text.gyro_self_test
                0x08002694      0x118 CMakeFiles/13_demo_OLED_FLOAT.elf.dir/Drivers/DMP/inv_mpu.c.obj
 .text.set_int_enable
                0x080027ac       0xb0 CMakeFiles/13_demo_OLED_FLOAT.elf.dir/Drivers/DMP/inv_mpu.c.obj
 .text.get_st_biases
                0x0800285c      0x4fc CMakeFiles/13_demo_OLED_FLOAT.elf.dir/Drivers/DMP/inv_mpu.c.obj
 .text.mpu_reset_fifo
                0x08002d58      0x274 CMakeFiles/13_demo_OLED_FLOAT.elf.dir/Drivers/DMP/inv_mpu.c.obj
                0x08002d58                mpu_reset_fifo
 .text.mpu_get_gyro_fsr
                0x08002fcc       0x3c CMakeFiles/13_demo_OLED_FLOAT.elf.dir/Drivers/DMP/inv_mpu.c.obj
                0x08002fcc                mpu_get_gyro_fsr
 .text.mpu_set_gyro_fsr
                0x08003008       0xa4 CMakeFiles/13_demo_OLED_FLOAT.elf.dir/Drivers/DMP/inv_mpu.c.obj
                0x08003008                mpu_set_gyro_fsr
 .text.mpu_get_accel_fsr
                0x080030ac       0x44 CMakeFiles/13_demo_OLED_FLOAT.elf.dir/Drivers/DMP/inv_mpu.c.obj
                0x080030ac                mpu_get_accel_fsr
 .text.mpu_set_accel_fsr
                0x080030f0       0xa0 CMakeFiles/13_demo_OLED_FLOAT.elf.dir/Drivers/DMP/inv_mpu.c.obj
                0x080030f0                mpu_set_accel_fsr
 .text.mpu_get_lpf
                0x08003190       0x44 CMakeFiles/13_demo_OLED_FLOAT.elf.dir/Drivers/DMP/inv_mpu.c.obj
                0x08003190                mpu_get_lpf
 .text.mpu_set_lpf
                0x080031d4       0xa0 CMakeFiles/13_demo_OLED_FLOAT.elf.dir/Drivers/DMP/inv_mpu.c.obj
                0x080031d4                mpu_set_lpf
 .text.mpu_get_sample_rate
                0x08003274       0x1c CMakeFiles/13_demo_OLED_FLOAT.elf.dir/Drivers/DMP/inv_mpu.c.obj
                0x08003274                mpu_get_sample_rate
 .text.mpu_get_gyro_sens
                0x08003290       0x4c CMakeFiles/13_demo_OLED_FLOAT.elf.dir/Drivers/DMP/inv_mpu.c.obj
                0x08003290                mpu_get_gyro_sens
 .text.mpu_get_accel_sens
                0x080032dc       0x4c CMakeFiles/13_demo_OLED_FLOAT.elf.dir/Drivers/DMP/inv_mpu.c.obj
                0x080032dc                mpu_get_accel_sens
 .text.mpu_get_fifo_config
                0x08003328       0x10 CMakeFiles/13_demo_OLED_FLOAT.elf.dir/Drivers/DMP/inv_mpu.c.obj
                0x08003328                mpu_get_fifo_config
 .text.mpu_configure_fifo
                0x08003338       0x64 CMakeFiles/13_demo_OLED_FLOAT.elf.dir/Drivers/DMP/inv_mpu.c.obj
                0x08003338                mpu_configure_fifo
 .text.mpu_read_fifo_stream
                0x0800339c       0xe0 CMakeFiles/13_demo_OLED_FLOAT.elf.dir/Drivers/DMP/inv_mpu.c.obj
                0x0800339c                mpu_read_fifo_stream
 .text.mpu_set_bypass
                0x0800347c      0x1ac CMakeFiles/13_demo_OLED_FLOAT.elf.dir/Drivers/DMP/inv_mpu.c.obj
                0x0800347c                mpu_set_bypass
 .text.mpu_set_int_latched
                0x08003628       0x84 CMakeFiles/13_demo_OLED_FLOAT.elf.dir/Drivers/DMP/inv_mpu.c.obj
                0x08003628                mpu_set_int_latched
 .text.mpu_lp_accel_mode
                0x080036ac       0xf4 CMakeFiles/13_demo_OLED_FLOAT.elf.dir/Drivers/DMP/inv_mpu.c.obj
                0x080036ac                mpu_lp_accel_mode
 .text.mpu_set_sample_rate
                0x080037a0       0xb0 CMakeFiles/13_demo_OLED_FLOAT.elf.dir/Drivers/DMP/inv_mpu.c.obj
                0x080037a0                mpu_set_sample_rate
 .text.mpu_set_sensors
                0x08003850       0xfc CMakeFiles/13_demo_OLED_FLOAT.elf.dir/Drivers/DMP/inv_mpu.c.obj
                0x08003850                mpu_set_sensors
 .text.mpu_init
                0x0800394c      0x1c8 CMakeFiles/13_demo_OLED_FLOAT.elf.dir/Drivers/DMP/inv_mpu.c.obj
                0x0800394c                mpu_init
 .text.mpu_write_mem
                0x08003b14       0x90 CMakeFiles/13_demo_OLED_FLOAT.elf.dir/Drivers/DMP/inv_mpu.c.obj
                0x08003b14                mpu_write_mem
 .text.mpu_read_mem
                0x08003ba4       0x90 CMakeFiles/13_demo_OLED_FLOAT.elf.dir/Drivers/DMP/inv_mpu.c.obj
                0x08003ba4                mpu_read_mem
 .text.mpu_load_firmware
                0x08003c34       0xc8 CMakeFiles/13_demo_OLED_FLOAT.elf.dir/Drivers/DMP/inv_mpu.c.obj
                0x08003c34                mpu_load_firmware
 .text.mpu_set_dmp_state
                0x08003cfc       0xac CMakeFiles/13_demo_OLED_FLOAT.elf.dir/Drivers/DMP/inv_mpu.c.obj
                0x08003cfc                mpu_set_dmp_state
 .text.mpu_run_self_test
                0x08003da8      0x104 CMakeFiles/13_demo_OLED_FLOAT.elf.dir/Drivers/DMP/inv_mpu.c.obj
                0x08003da8                mpu_run_self_test
 .text.decode_gesture
                0x08003eac       0x3c CMakeFiles/13_demo_OLED_FLOAT.elf.dir/Drivers/DMP/inv_mpu_dmp_motion_driver.c.obj
 .text.dmp_load_motion_driver_firmware
                0x08003ee8       0x18 CMakeFiles/13_demo_OLED_FLOAT.elf.dir/Drivers/DMP/inv_mpu_dmp_motion_driver.c.obj
                0x08003ee8                dmp_load_motion_driver_firmware
 .text.dmp_set_orientation
                0x08003f00      0x144 CMakeFiles/13_demo_OLED_FLOAT.elf.dir/Drivers/DMP/inv_mpu_dmp_motion_driver.c.obj
                0x08003f00                dmp_set_orientation
 .text.dmp_set_gyro_bias
                0x08004044      0x10c CMakeFiles/13_demo_OLED_FLOAT.elf.dir/Drivers/DMP/inv_mpu_dmp_motion_driver.c.obj
                0x08004044                dmp_set_gyro_bias
 .text.dmp_set_accel_bias
                0x08004150       0xec CMakeFiles/13_demo_OLED_FLOAT.elf.dir/Drivers/DMP/inv_mpu_dmp_motion_driver.c.obj
                0x08004150                dmp_set_accel_bias
 .text.dmp_set_fifo_rate
                0x0800423c       0x68 CMakeFiles/13_demo_OLED_FLOAT.elf.dir/Drivers/DMP/inv_mpu_dmp_motion_driver.c.obj
                0x0800423c                dmp_set_fifo_rate
 .text.dmp_set_tap_thresh
                0x080042a4      0x1a0 CMakeFiles/13_demo_OLED_FLOAT.elf.dir/Drivers/DMP/inv_mpu_dmp_motion_driver.c.obj
                0x080042a4                dmp_set_tap_thresh
 .text.dmp_set_tap_axes
                0x08004444       0x4e CMakeFiles/13_demo_OLED_FLOAT.elf.dir/Drivers/DMP/inv_mpu_dmp_motion_driver.c.obj
                0x08004444                dmp_set_tap_axes
 .text.dmp_set_tap_count
                0x08004492       0x2c CMakeFiles/13_demo_OLED_FLOAT.elf.dir/Drivers/DMP/inv_mpu_dmp_motion_driver.c.obj
                0x08004492                dmp_set_tap_count
 *fill*         0x080044be        0x2 
 .text.dmp_set_tap_time
                0x080044c0       0x30 CMakeFiles/13_demo_OLED_FLOAT.elf.dir/Drivers/DMP/inv_mpu_dmp_motion_driver.c.obj
                0x080044c0                dmp_set_tap_time
 .text.dmp_set_tap_time_multi
                0x080044f0       0x30 CMakeFiles/13_demo_OLED_FLOAT.elf.dir/Drivers/DMP/inv_mpu_dmp_motion_driver.c.obj
                0x080044f0                dmp_set_tap_time_multi
 .text.dmp_set_shake_reject_thresh
                0x08004520       0x44 CMakeFiles/13_demo_OLED_FLOAT.elf.dir/Drivers/DMP/inv_mpu_dmp_motion_driver.c.obj
                0x08004520                dmp_set_shake_reject_thresh
 .text.dmp_set_shake_reject_time
                0x08004564       0x2c CMakeFiles/13_demo_OLED_FLOAT.elf.dir/Drivers/DMP/inv_mpu_dmp_motion_driver.c.obj
                0x08004564                dmp_set_shake_reject_time
 .text.dmp_set_shake_reject_timeout
                0x08004590       0x2c CMakeFiles/13_demo_OLED_FLOAT.elf.dir/Drivers/DMP/inv_mpu_dmp_motion_driver.c.obj
                0x08004590                dmp_set_shake_reject_timeout
 .text.dmp_enable_gyro_cal
                0x080045bc       0x44 CMakeFiles/13_demo_OLED_FLOAT.elf.dir/Drivers/DMP/inv_mpu_dmp_motion_driver.c.obj
                0x080045bc                dmp_enable_gyro_cal
 .text.dmp_enable_lp_quat
                0x08004600       0x3c CMakeFiles/13_demo_OLED_FLOAT.elf.dir/Drivers/DMP/inv_mpu_dmp_motion_driver.c.obj
                0x08004600                dmp_enable_lp_quat
 .text.dmp_enable_6x_lp_quat
                0x0800463c       0x3c CMakeFiles/13_demo_OLED_FLOAT.elf.dir/Drivers/DMP/inv_mpu_dmp_motion_driver.c.obj
                0x0800463c                dmp_enable_6x_lp_quat
 .text.dmp_enable_feature
                0x08004678      0x218 CMakeFiles/13_demo_OLED_FLOAT.elf.dir/Drivers/DMP/inv_mpu_dmp_motion_driver.c.obj
                0x08004678                dmp_enable_feature
 .text.dmp_read_fifo
                0x08004890      0x1dc CMakeFiles/13_demo_OLED_FLOAT.elf.dir/Drivers/DMP/inv_mpu_dmp_motion_driver.c.obj
                0x08004890                dmp_read_fifo
 .text.HAL_InitTick
                0x08004a6c       0x4c CMakeFiles/13_demo_OLED_FLOAT.elf.dir/Drivers/STM32F1xx_HAL_Driver/Src/stm32f1xx_hal.c.obj
                0x08004a6c                HAL_InitTick
 .text.HAL_Init
                0x08004ab8       0x24 CMakeFiles/13_demo_OLED_FLOAT.elf.dir/Drivers/STM32F1xx_HAL_Driver/Src/stm32f1xx_hal.c.obj
                0x08004ab8                HAL_Init
 .text.HAL_IncTick
                0x08004adc       0x18 CMakeFiles/13_demo_OLED_FLOAT.elf.dir/Drivers/STM32F1xx_HAL_Driver/Src/stm32f1xx_hal.c.obj
                0x08004adc                HAL_IncTick
 .text.HAL_GetTick
                0x08004af4        0xc CMakeFiles/13_demo_OLED_FLOAT.elf.dir/Drivers/STM32F1xx_HAL_Driver/Src/stm32f1xx_hal.c.obj
                0x08004af4                HAL_GetTick
 .text.HAL_Delay
                0x08004b00       0x28 CMakeFiles/13_demo_OLED_FLOAT.elf.dir/Drivers/STM32F1xx_HAL_Driver/Src/stm32f1xx_hal.c.obj
                0x08004b00                HAL_Delay
 .text.HAL_NVIC_SetPriorityGrouping
                0x08004b28       0x24 CMakeFiles/13_demo_OLED_FLOAT.elf.dir/Drivers/STM32F1xx_HAL_Driver/Src/stm32f1xx_hal_cortex.c.obj
                0x08004b28                HAL_NVIC_SetPriorityGrouping
 .text.HAL_NVIC_SetPriority
                0x08004b4c       0x68 CMakeFiles/13_demo_OLED_FLOAT.elf.dir/Drivers/STM32F1xx_HAL_Driver/Src/stm32f1xx_hal_cortex.c.obj
                0x08004b4c                HAL_NVIC_SetPriority
 .text.HAL_SYSTICK_Config
                0x08004bb4       0x2c CMakeFiles/13_demo_OLED_FLOAT.elf.dir/Drivers/STM32F1xx_HAL_Driver/Src/stm32f1xx_hal_cortex.c.obj
                0x08004bb4                HAL_SYSTICK_Config
 .text.HAL_GPIO_Init
                0x08004be0      0x220 CMakeFiles/13_demo_OLED_FLOAT.elf.dir/Drivers/STM32F1xx_HAL_Driver/Src/stm32f1xx_hal_gpio.c.obj
                0x08004be0                HAL_GPIO_Init
 .text.HAL_GPIO_WritePin
                0x08004e00        0xc CMakeFiles/13_demo_OLED_FLOAT.elf.dir/Drivers/STM32F1xx_HAL_Driver/Src/stm32f1xx_hal_gpio.c.obj
                0x08004e00                HAL_GPIO_WritePin
 .text.I2C_IsAcknowledgeFailed
                0x08004e0c       0x32 CMakeFiles/13_demo_OLED_FLOAT.elf.dir/Drivers/STM32F1xx_HAL_Driver/Src/stm32f1xx_hal_i2c.c.obj
 .text.I2C_WaitOnFlagUntilTimeout
                0x08004e3e       0x74 CMakeFiles/13_demo_OLED_FLOAT.elf.dir/Drivers/STM32F1xx_HAL_Driver/Src/stm32f1xx_hal_i2c.c.obj
 .text.I2C_WaitOnMasterAddressFlagUntilTimeout
                0x08004eb2       0xaa CMakeFiles/13_demo_OLED_FLOAT.elf.dir/Drivers/STM32F1xx_HAL_Driver/Src/stm32f1xx_hal_i2c.c.obj
 .text.I2C_WaitOnTXEFlagUntilTimeout
                0x08004f5c       0x54 CMakeFiles/13_demo_OLED_FLOAT.elf.dir/Drivers/STM32F1xx_HAL_Driver/Src/stm32f1xx_hal_i2c.c.obj
 .text.I2C_RequestMemoryWrite
                0x08004fb0       0xd8 CMakeFiles/13_demo_OLED_FLOAT.elf.dir/Drivers/STM32F1xx_HAL_Driver/Src/stm32f1xx_hal_i2c.c.obj
 .text.I2C_RequestMemoryRead
                0x08005088      0x154 CMakeFiles/13_demo_OLED_FLOAT.elf.dir/Drivers/STM32F1xx_HAL_Driver/Src/stm32f1xx_hal_i2c.c.obj
 .text.I2C_WaitOnBTFFlagUntilTimeout
                0x080051dc       0x54 CMakeFiles/13_demo_OLED_FLOAT.elf.dir/Drivers/STM32F1xx_HAL_Driver/Src/stm32f1xx_hal_i2c.c.obj
 .text.I2C_WaitOnRXNEFlagUntilTimeout
                0x08005230       0x6a CMakeFiles/13_demo_OLED_FLOAT.elf.dir/Drivers/STM32F1xx_HAL_Driver/Src/stm32f1xx_hal_i2c.c.obj
 *fill*         0x0800529a        0x2 
 .text.HAL_I2C_Init
                0x0800529c      0x1bc CMakeFiles/13_demo_OLED_FLOAT.elf.dir/Drivers/STM32F1xx_HAL_Driver/Src/stm32f1xx_hal_i2c.c.obj
                0x0800529c                HAL_I2C_Init
 .text.HAL_I2C_Mem_Write
                0x08005458      0x164 CMakeFiles/13_demo_OLED_FLOAT.elf.dir/Drivers/STM32F1xx_HAL_Driver/Src/stm32f1xx_hal_i2c.c.obj
                0x08005458                HAL_I2C_Mem_Write
 .text.HAL_I2C_Mem_Read
                0x080055bc      0x344 CMakeFiles/13_demo_OLED_FLOAT.elf.dir/Drivers/STM32F1xx_HAL_Driver/Src/stm32f1xx_hal_i2c.c.obj
                0x080055bc                HAL_I2C_Mem_Read
 .text.RCC_Delay
                0x08005900       0x2c CMakeFiles/13_demo_OLED_FLOAT.elf.dir/Drivers/STM32F1xx_HAL_Driver/Src/stm32f1xx_hal_rcc.c.obj
 .text.HAL_RCC_OscConfig
                0x0800592c      0x410 CMakeFiles/13_demo_OLED_FLOAT.elf.dir/Drivers/STM32F1xx_HAL_Driver/Src/stm32f1xx_hal_rcc.c.obj
                0x0800592c                HAL_RCC_OscConfig
 .text.HAL_RCC_GetSysClockFreq
                0x08005d3c       0x6c CMakeFiles/13_demo_OLED_FLOAT.elf.dir/Drivers/STM32F1xx_HAL_Driver/Src/stm32f1xx_hal_rcc.c.obj
                0x08005d3c                HAL_RCC_GetSysClockFreq
 .text.HAL_RCC_ClockConfig
                0x08005da8      0x16c CMakeFiles/13_demo_OLED_FLOAT.elf.dir/Drivers/STM32F1xx_HAL_Driver/Src/stm32f1xx_hal_rcc.c.obj
                0x08005da8                HAL_RCC_ClockConfig
 .text.HAL_RCC_GetHCLKFreq
                0x08005f14        0xc CMakeFiles/13_demo_OLED_FLOAT.elf.dir/Drivers/STM32F1xx_HAL_Driver/Src/stm32f1xx_hal_rcc.c.obj
                0x08005f14                HAL_RCC_GetHCLKFreq
 .text.HAL_RCC_GetPCLK1Freq
                0x08005f20       0x20 CMakeFiles/13_demo_OLED_FLOAT.elf.dir/Drivers/STM32F1xx_HAL_Driver/Src/stm32f1xx_hal_rcc.c.obj
                0x08005f20                HAL_RCC_GetPCLK1Freq
 .text.HAL_RCC_GetPCLK2Freq
                0x08005f40       0x20 CMakeFiles/13_demo_OLED_FLOAT.elf.dir/Drivers/STM32F1xx_HAL_Driver/Src/stm32f1xx_hal_rcc.c.obj
                0x08005f40                HAL_RCC_GetPCLK2Freq
 .text.UART_SetConfig
                0x08005f60       0x90 CMakeFiles/13_demo_OLED_FLOAT.elf.dir/Drivers/STM32F1xx_HAL_Driver/Src/stm32f1xx_hal_uart.c.obj
 .text.UART_WaitOnFlagUntilTimeout
                0x08005ff0       0x68 CMakeFiles/13_demo_OLED_FLOAT.elf.dir/Drivers/STM32F1xx_HAL_Driver/Src/stm32f1xx_hal_uart.c.obj
 .text.HAL_UART_Init
                0x08006058       0x5e CMakeFiles/13_demo_OLED_FLOAT.elf.dir/Drivers/STM32F1xx_HAL_Driver/Src/stm32f1xx_hal_uart.c.obj
                0x08006058                HAL_UART_Init
 .text.HAL_UART_Transmit
                0x080060b6       0xd8 CMakeFiles/13_demo_OLED_FLOAT.elf.dir/Drivers/STM32F1xx_HAL_Driver/Src/stm32f1xx_hal_uart.c.obj
                0x080060b6                HAL_UART_Transmit
 *fill*         0x0800618e        0x2 
 .text.Reset_Handler
                0x08006190       0x48 CMakeFiles/13_demo_OLED_FLOAT.elf.dir/startup/startup_stm32f103xb.s.obj
                0x08006190                Reset_Handler
 .text.Default_Handler
                0x080061d8        0x2 CMakeFiles/13_demo_OLED_FLOAT.elf.dir/startup/startup_stm32f103xb.s.obj
                0x080061d8                RTC_Alarm_IRQHandler
                0x080061d8                EXTI2_IRQHandler
                0x080061d8                TIM1_CC_IRQHandler
                0x080061d8                PVD_IRQHandler
                0x080061d8                EXTI3_IRQHandler
                0x080061d8                EXTI0_IRQHandler
                0x080061d8                I2C2_EV_IRQHandler
                0x080061d8                ADC1_2_IRQHandler
                0x080061d8                SPI1_IRQHandler
                0x080061d8                TAMPER_IRQHandler
                0x080061d8                DMA1_Channel4_IRQHandler
                0x080061d8                USART3_IRQHandler
                0x080061d8                RTC_IRQHandler
                0x080061d8                DMA1_Channel7_IRQHandler
                0x080061d8                CAN1_RX1_IRQHandler
                0x080061d8                TIM4_IRQHandler
                0x080061d8                I2C1_EV_IRQHandler
                0x080061d8                DMA1_Channel6_IRQHandler
                0x080061d8                TIM3_IRQHandler
                0x080061d8                RCC_IRQHandler
                0x080061d8                TIM1_TRG_COM_IRQHandler
                0x080061d8                DMA1_Channel1_IRQHandler
                0x080061d8                Default_Handler
                0x080061d8                EXTI15_10_IRQHandler
                0x080061d8                EXTI9_5_IRQHandler
                0x080061d8                SPI2_IRQHandler
                0x080061d8                DMA1_Channel5_IRQHandler
                0x080061d8                EXTI4_IRQHandler
                0x080061d8                USB_LP_CAN1_RX0_IRQHandler
                0x080061d8                USB_HP_CAN1_TX_IRQHandler
                0x080061d8                DMA1_Channel3_IRQHandler
                0x080061d8                TIM1_UP_IRQHandler
                0x080061d8                WWDG_IRQHandler
                0x080061d8                TIM2_IRQHandler
                0x080061d8                TIM1_BRK_IRQHandler
                0x080061d8                EXTI1_IRQHandler
                0x080061d8                USART2_IRQHandler
                0x080061d8                I2C2_ER_IRQHandler
                0x080061d8                DMA1_Channel2_IRQHandler
                0x080061d8                CAN1_SCE_IRQHandler
                0x080061d8                FLASH_IRQHandler
                0x080061d8                USART1_IRQHandler
                0x080061d8                I2C1_ER_IRQHandler
                0x080061d8                USBWakeUp_IRQHandler
 *fill*         0x080061da        0x2 
 .text.__errno  0x080061dc        0xc d:/environment/gcc-arm-none-eabi/bin/../lib/gcc/arm-none-eabi/9.2.1/../../../../arm-none-eabi/lib/thumb/v7-m/nofp\libg.a(lib_a-errno.o)
                0x080061dc                __errno
 .text.__libc_init_array
                0x080061e8       0x48 d:/environment/gcc-arm-none-eabi/bin/../lib/gcc/arm-none-eabi/9.2.1/../../../../arm-none-eabi/lib/thumb/v7-m/nofp\libg.a(lib_a-init.o)
                0x080061e8                __libc_init_array
 .text.memcmp   0x08006230       0x5c d:/environment/gcc-arm-none-eabi/bin/../lib/gcc/arm-none-eabi/9.2.1/../../../../arm-none-eabi/lib/thumb/v7-m/nofp\libg.a(lib_a-memcmp.o)
                0x08006230                memcmp
 .text.memset   0x0800628c       0xa0 d:/environment/gcc-arm-none-eabi/bin/../lib/gcc/arm-none-eabi/9.2.1/../../../../arm-none-eabi/lib/thumb/v7-m/nofp\libg.a(lib_a-memset.o)
                0x0800628c                memset
 .text.printf   0x0800632c       0x28 d:/environment/gcc-arm-none-eabi/bin/../lib/gcc/arm-none-eabi/9.2.1/../../../../arm-none-eabi/lib/thumb/v7-m/nofp\libg.a(lib_a-printf.o)
                0x0800632c                printf
 .text._puts_r  0x08006354       0x9c d:/environment/gcc-arm-none-eabi/bin/../lib/gcc/arm-none-eabi/9.2.1/../../../../arm-none-eabi/lib/thumb/v7-m/nofp\libg.a(lib_a-puts.o)
                0x08006354                _puts_r
 .text.puts     0x080063f0       0x10 d:/environment/gcc-arm-none-eabi/bin/../lib/gcc/arm-none-eabi/9.2.1/../../../../arm-none-eabi/lib/thumb/v7-m/nofp\libg.a(lib_a-puts.o)
                0x080063f0                puts
 .text.strlen   0x08006400       0x5c d:/environment/gcc-arm-none-eabi/bin/../lib/gcc/arm-none-eabi/9.2.1/../../../../arm-none-eabi/lib/thumb/v7-m/nofp\libg.a(lib_a-strlen-stub.o)
                0x08006400                strlen
 .text._vfprintf_r
                0x0800645c     0x1c18 d:/environment/gcc-arm-none-eabi/bin/../lib/gcc/arm-none-eabi/9.2.1/../../../../arm-none-eabi/lib/thumb/v7-m/nofp\libg.a(lib_a-vfprintf.o)
                0x0800645c                _vfprintf_r
 .text.__sbprintf
                0x08008074       0x88 d:/environment/gcc-arm-none-eabi/bin/../lib/gcc/arm-none-eabi/9.2.1/../../../../arm-none-eabi/lib/thumb/v7-m/nofp\libg.a(lib_a-vfprintf.o)
 .text.__swsetup_r
                0x080080fc       0xd0 d:/environment/gcc-arm-none-eabi/bin/../lib/gcc/arm-none-eabi/9.2.1/../../../../arm-none-eabi/lib/thumb/v7-m/nofp\libg.a(lib_a-wsetup.o)
                0x080080fc                __swsetup_r
 .text.startup.register_fini
                0x080081cc       0x14 d:/environment/gcc-arm-none-eabi/bin/../lib/gcc/arm-none-eabi/9.2.1/../../../../arm-none-eabi/lib/thumb/v7-m/nofp\libg.a(lib_a-__call_atexit.o)
 .text.atexit   0x080081e0        0xc d:/environment/gcc-arm-none-eabi/bin/../lib/gcc/arm-none-eabi/9.2.1/../../../../arm-none-eabi/lib/thumb/v7-m/nofp\libg.a(lib_a-atexit.o)
                0x080081e0                atexit
 .text.quorem   0x080081ec      0x120 d:/environment/gcc-arm-none-eabi/bin/../lib/gcc/arm-none-eabi/9.2.1/../../../../arm-none-eabi/lib/thumb/v7-m/nofp\libg.a(lib_a-dtoa.o)
 *fill*         0x0800830c        0x4 
 .text._dtoa_r  0x08008310      0xe8c d:/environment/gcc-arm-none-eabi/bin/../lib/gcc/arm-none-eabi/9.2.1/../../../../arm-none-eabi/lib/thumb/v7-m/nofp\libg.a(lib_a-dtoa.o)
                0x08008310                _dtoa_r
 .text.__sflush_r
                0x0800919c      0x130 d:/environment/gcc-arm-none-eabi/bin/../lib/gcc/arm-none-eabi/9.2.1/../../../../arm-none-eabi/lib/thumb/v7-m/nofp\libg.a(lib_a-fflush.o)
                0x0800919c                __sflush_r
 .text._fflush_r
                0x080092cc       0x5c d:/environment/gcc-arm-none-eabi/bin/../lib/gcc/arm-none-eabi/9.2.1/../../../../arm-none-eabi/lib/thumb/v7-m/nofp\libg.a(lib_a-fflush.o)
                0x080092cc                _fflush_r
 .text.std      0x08009328       0x50 d:/environment/gcc-arm-none-eabi/bin/../lib/gcc/arm-none-eabi/9.2.1/../../../../arm-none-eabi/lib/thumb/v7-m/nofp\libg.a(lib_a-findfp.o)
 .text._cleanup_r
                0x08009378        0xc d:/environment/gcc-arm-none-eabi/bin/../lib/gcc/arm-none-eabi/9.2.1/../../../../arm-none-eabi/lib/thumb/v7-m/nofp\libg.a(lib_a-findfp.o)
                0x08009378                _cleanup_r
 .text.__sinit  0x08009384       0x5c d:/environment/gcc-arm-none-eabi/bin/../lib/gcc/arm-none-eabi/9.2.1/../../../../arm-none-eabi/lib/thumb/v7-m/nofp\libg.a(lib_a-findfp.o)
                0x08009384                __sinit
 .text.__sfp_lock_acquire
                0x080093e0        0xc d:/environment/gcc-arm-none-eabi/bin/../lib/gcc/arm-none-eabi/9.2.1/../../../../arm-none-eabi/lib/thumb/v7-m/nofp\libg.a(lib_a-findfp.o)
                0x080093e0                __sfp_lock_acquire
 .text.__sfp_lock_release
                0x080093ec        0xc d:/environment/gcc-arm-none-eabi/bin/../lib/gcc/arm-none-eabi/9.2.1/../../../../arm-none-eabi/lib/thumb/v7-m/nofp\libg.a(lib_a-findfp.o)
                0x080093ec                __sfp_lock_release
 .text.__libc_fini_array
                0x080093f8       0x2c d:/environment/gcc-arm-none-eabi/bin/../lib/gcc/arm-none-eabi/9.2.1/../../../../arm-none-eabi/lib/thumb/v7-m/nofp\libg.a(lib_a-fini.o)
                0x080093f8                __libc_fini_array
 .text._malloc_trim_r
                0x08009424       0xa0 d:/environment/gcc-arm-none-eabi/bin/../lib/gcc/arm-none-eabi/9.2.1/../../../../arm-none-eabi/lib/thumb/v7-m/nofp\libg.a(lib_a-freer.o)
                0x08009424                _malloc_trim_r
 .text._free_r  0x080094c4      0x20c d:/environment/gcc-arm-none-eabi/bin/../lib/gcc/arm-none-eabi/9.2.1/../../../../arm-none-eabi/lib/thumb/v7-m/nofp\libg.a(lib_a-freer.o)
                0x080094c4                _free_r
 .text.__sfvwrite_r
                0x080096d0      0x2ec d:/environment/gcc-arm-none-eabi/bin/../lib/gcc/arm-none-eabi/9.2.1/../../../../arm-none-eabi/lib/thumb/v7-m/nofp\libg.a(lib_a-fvwrite.o)
                0x080096d0                __sfvwrite_r
 .text._fwalk_reent
                0x080099bc       0x48 d:/environment/gcc-arm-none-eabi/bin/../lib/gcc/arm-none-eabi/9.2.1/../../../../arm-none-eabi/lib/thumb/v7-m/nofp\libg.a(lib_a-fwalk.o)
                0x080099bc                _fwalk_reent
 .text._localeconv_r
                0x08009a04        0x8 d:/environment/gcc-arm-none-eabi/bin/../lib/gcc/arm-none-eabi/9.2.1/../../../../arm-none-eabi/lib/thumb/v7-m/nofp\libg.a(lib_a-localeconv.o)
                0x08009a04                _localeconv_r
 .text.__retarget_lock_init_recursive
                0x08009a0c        0x4 d:/environment/gcc-arm-none-eabi/bin/../lib/gcc/arm-none-eabi/9.2.1/../../../../arm-none-eabi/lib/thumb/v7-m/nofp\libg.a(lib_a-lock.o)
                0x08009a0c                __retarget_lock_init_recursive
 .text.__retarget_lock_close_recursive
                0x08009a10        0x4 d:/environment/gcc-arm-none-eabi/bin/../lib/gcc/arm-none-eabi/9.2.1/../../../../arm-none-eabi/lib/thumb/v7-m/nofp\libg.a(lib_a-lock.o)
                0x08009a10                __retarget_lock_close_recursive
 .text.__retarget_lock_acquire_recursive
                0x08009a14        0x4 d:/environment/gcc-arm-none-eabi/bin/../lib/gcc/arm-none-eabi/9.2.1/../../../../arm-none-eabi/lib/thumb/v7-m/nofp\libg.a(lib_a-lock.o)
                0x08009a14                __retarget_lock_acquire_recursive
 .text.__retarget_lock_release_recursive
                0x08009a18        0x4 d:/environment/gcc-arm-none-eabi/bin/../lib/gcc/arm-none-eabi/9.2.1/../../../../arm-none-eabi/lib/thumb/v7-m/nofp\libg.a(lib_a-lock.o)
                0x08009a18                __retarget_lock_release_recursive
 .text.__swhatbuf_r
                0x08009a1c       0x5c d:/environment/gcc-arm-none-eabi/bin/../lib/gcc/arm-none-eabi/9.2.1/../../../../arm-none-eabi/lib/thumb/v7-m/nofp\libg.a(lib_a-makebuf.o)
                0x08009a1c                __swhatbuf_r
 .text.__smakebuf_r
                0x08009a78       0x94 d:/environment/gcc-arm-none-eabi/bin/../lib/gcc/arm-none-eabi/9.2.1/../../../../arm-none-eabi/lib/thumb/v7-m/nofp\libg.a(lib_a-makebuf.o)
                0x08009a78                __smakebuf_r
 .text._malloc_r
                0x08009b0c      0x55c d:/environment/gcc-arm-none-eabi/bin/../lib/gcc/arm-none-eabi/9.2.1/../../../../arm-none-eabi/lib/thumb/v7-m/nofp\libg.a(lib_a-mallocr.o)
                0x08009b0c                _malloc_r
 .text.memchr   0x0800a068       0x80 d:/environment/gcc-arm-none-eabi/bin/../lib/gcc/arm-none-eabi/9.2.1/../../../../arm-none-eabi/lib/thumb/v7-m/nofp\libg.a(lib_a-memchr-stub.o)
                0x0800a068                memchr
 .text.memmove  0x0800a0e8       0xd4 d:/environment/gcc-arm-none-eabi/bin/../lib/gcc/arm-none-eabi/9.2.1/../../../../arm-none-eabi/lib/thumb/v7-m/nofp\libg.a(lib_a-memmove.o)
                0x0800a0e8                memmove
 .text.__malloc_lock
                0x0800a1bc        0xc d:/environment/gcc-arm-none-eabi/bin/../lib/gcc/arm-none-eabi/9.2.1/../../../../arm-none-eabi/lib/thumb/v7-m/nofp\libg.a(lib_a-mlock.o)
                0x0800a1bc                __malloc_lock
 .text.__malloc_unlock
                0x0800a1c8        0xc d:/environment/gcc-arm-none-eabi/bin/../lib/gcc/arm-none-eabi/9.2.1/../../../../arm-none-eabi/lib/thumb/v7-m/nofp\libg.a(lib_a-mlock.o)
                0x0800a1c8                __malloc_unlock
 .text._Balloc  0x0800a1d4       0x4c d:/environment/gcc-arm-none-eabi/bin/../lib/gcc/arm-none-eabi/9.2.1/../../../../arm-none-eabi/lib/thumb/v7-m/nofp\libg.a(lib_a-mprec.o)
                0x0800a1d4                _Balloc
 .text._Bfree   0x0800a220       0x14 d:/environment/gcc-arm-none-eabi/bin/../lib/gcc/arm-none-eabi/9.2.1/../../../../arm-none-eabi/lib/thumb/v7-m/nofp\libg.a(lib_a-mprec.o)
                0x0800a220                _Bfree
 .text.__multadd
                0x0800a234       0x7c d:/environment/gcc-arm-none-eabi/bin/../lib/gcc/arm-none-eabi/9.2.1/../../../../arm-none-eabi/lib/thumb/v7-m/nofp\libg.a(lib_a-mprec.o)
                0x0800a234                __multadd
 .text.__hi0bits
                0x0800a2b0       0x40 d:/environment/gcc-arm-none-eabi/bin/../lib/gcc/arm-none-eabi/9.2.1/../../../../arm-none-eabi/lib/thumb/v7-m/nofp\libg.a(lib_a-mprec.o)
                0x0800a2b0                __hi0bits
 .text.__lo0bits
                0x0800a2f0       0x60 d:/environment/gcc-arm-none-eabi/bin/../lib/gcc/arm-none-eabi/9.2.1/../../../../arm-none-eabi/lib/thumb/v7-m/nofp\libg.a(lib_a-mprec.o)
                0x0800a2f0                __lo0bits
 .text.__i2b    0x0800a350       0x14 d:/environment/gcc-arm-none-eabi/bin/../lib/gcc/arm-none-eabi/9.2.1/../../../../arm-none-eabi/lib/thumb/v7-m/nofp\libg.a(lib_a-mprec.o)
                0x0800a350                __i2b
 .text.__multiply
                0x0800a364      0x144 d:/environment/gcc-arm-none-eabi/bin/../lib/gcc/arm-none-eabi/9.2.1/../../../../arm-none-eabi/lib/thumb/v7-m/nofp\libg.a(lib_a-mprec.o)
                0x0800a364                __multiply
 .text.__pow5mult
                0x0800a4a8       0xa0 d:/environment/gcc-arm-none-eabi/bin/../lib/gcc/arm-none-eabi/9.2.1/../../../../arm-none-eabi/lib/thumb/v7-m/nofp\libg.a(lib_a-mprec.o)
                0x0800a4a8                __pow5mult
 .text.__lshift
                0x0800a548       0xd0 d:/environment/gcc-arm-none-eabi/bin/../lib/gcc/arm-none-eabi/9.2.1/../../../../arm-none-eabi/lib/thumb/v7-m/nofp\libg.a(lib_a-mprec.o)
                0x0800a548                __lshift
 .text.__mcmp   0x0800a618       0x3c d:/environment/gcc-arm-none-eabi/bin/../lib/gcc/arm-none-eabi/9.2.1/../../../../arm-none-eabi/lib/thumb/v7-m/nofp\libg.a(lib_a-mprec.o)
                0x0800a618                __mcmp
 .text.__mdiff  0x0800a654      0x138 d:/environment/gcc-arm-none-eabi/bin/../lib/gcc/arm-none-eabi/9.2.1/../../../../arm-none-eabi/lib/thumb/v7-m/nofp\libg.a(lib_a-mprec.o)
                0x0800a654                __mdiff
 .text.__d2b    0x0800a78c       0xa8 d:/environment/gcc-arm-none-eabi/bin/../lib/gcc/arm-none-eabi/9.2.1/../../../../arm-none-eabi/lib/thumb/v7-m/nofp\libg.a(lib_a-mprec.o)
                0x0800a78c                __d2b
 .text._realloc_r
                0x0800a834      0x3e0 d:/environment/gcc-arm-none-eabi/bin/../lib/gcc/arm-none-eabi/9.2.1/../../../../arm-none-eabi/lib/thumb/v7-m/nofp\libg.a(lib_a-reallocr.o)
                0x0800a834                _realloc_r
 .text.frexp    0x0800ac14       0x70 d:/environment/gcc-arm-none-eabi/bin/../lib/gcc/arm-none-eabi/9.2.1/../../../../arm-none-eabi/lib/thumb/v7-m/nofp\libg.a(lib_a-s_frexp.o)
                0x0800ac14                frexp
 .text._sbrk_r  0x0800ac84       0x24 d:/environment/gcc-arm-none-eabi/bin/../lib/gcc/arm-none-eabi/9.2.1/../../../../arm-none-eabi/lib/thumb/v7-m/nofp\libg.a(lib_a-sbrkr.o)
                0x0800ac84                _sbrk_r
 .text.__sread  0x0800aca8       0x24 d:/environment/gcc-arm-none-eabi/bin/../lib/gcc/arm-none-eabi/9.2.1/../../../../arm-none-eabi/lib/thumb/v7-m/nofp\libg.a(lib_a-stdio.o)
                0x0800aca8                __sread
 .text.__swrite
                0x0800accc       0x40 d:/environment/gcc-arm-none-eabi/bin/../lib/gcc/arm-none-eabi/9.2.1/../../../../arm-none-eabi/lib/thumb/v7-m/nofp\libg.a(lib_a-stdio.o)
                0x0800accc                __swrite
 .text.__sseek  0x0800ad0c       0x20 d:/environment/gcc-arm-none-eabi/bin/../lib/gcc/arm-none-eabi/9.2.1/../../../../arm-none-eabi/lib/thumb/v7-m/nofp\libg.a(lib_a-stdio.o)
                0x0800ad0c                __sseek
 .text.__sclose
                0x0800ad2c        0x8 d:/environment/gcc-arm-none-eabi/bin/../lib/gcc/arm-none-eabi/9.2.1/../../../../arm-none-eabi/lib/thumb/v7-m/nofp\libg.a(lib_a-stdio.o)
                0x0800ad2c                __sclose
 .text.strncpy  0x0800ad34       0x68 d:/environment/gcc-arm-none-eabi/bin/../lib/gcc/arm-none-eabi/9.2.1/../../../../arm-none-eabi/lib/thumb/v7-m/nofp\libg.a(lib_a-strncpy.o)
                0x0800ad34                strncpy
 .text.__sprint_r.part.0
                0x0800ad9c       0x78 d:/environment/gcc-arm-none-eabi/bin/../lib/gcc/arm-none-eabi/9.2.1/../../../../arm-none-eabi/lib/thumb/v7-m/nofp\libg.a(lib_a-vfiprintf.o)
 .text.__sprint_r
                0x0800ae14       0x14 d:/environment/gcc-arm-none-eabi/bin/../lib/gcc/arm-none-eabi/9.2.1/../../../../arm-none-eabi/lib/thumb/v7-m/nofp\libg.a(lib_a-vfiprintf.o)
                0x0800ae14                __sprint_r
 .text._write_r
                0x0800ae28       0x2c d:/environment/gcc-arm-none-eabi/bin/../lib/gcc/arm-none-eabi/9.2.1/../../../../arm-none-eabi/lib/thumb/v7-m/nofp\libg.a(lib_a-writer.o)
                0x0800ae28                _write_r
 .text.__register_exitproc
                0x0800ae54       0x8c d:/environment/gcc-arm-none-eabi/bin/../lib/gcc/arm-none-eabi/9.2.1/../../../../arm-none-eabi/lib/thumb/v7-m/nofp\libg.a(lib_a-__atexit.o)
                0x0800ae54                __register_exitproc
 .text._calloc_r
                0x0800aee0       0x60 d:/environment/gcc-arm-none-eabi/bin/../lib/gcc/arm-none-eabi/9.2.1/../../../../arm-none-eabi/lib/thumb/v7-m/nofp\libg.a(lib_a-callocr.o)
                0x0800aee0                _calloc_r
 .text._close_r
                0x0800af40       0x24 d:/environment/gcc-arm-none-eabi/bin/../lib/gcc/arm-none-eabi/9.2.1/../../../../arm-none-eabi/lib/thumb/v7-m/nofp\libg.a(lib_a-closer.o)
                0x0800af40                _close_r
 .text._fclose_r
                0x0800af64       0xcc d:/environment/gcc-arm-none-eabi/bin/../lib/gcc/arm-none-eabi/9.2.1/../../../../arm-none-eabi/lib/thumb/v7-m/nofp\libg.a(lib_a-fclose.o)
                0x0800af64                _fclose_r
 .text.__fputwc
                0x0800b030       0xa0 d:/environment/gcc-arm-none-eabi/bin/../lib/gcc/arm-none-eabi/9.2.1/../../../../arm-none-eabi/lib/thumb/v7-m/nofp\libg.a(lib_a-fputwc.o)
                0x0800b030                __fputwc
 .text._fputwc_r
                0x0800b0d0       0x68 d:/environment/gcc-arm-none-eabi/bin/../lib/gcc/arm-none-eabi/9.2.1/../../../../arm-none-eabi/lib/thumb/v7-m/nofp\libg.a(lib_a-fputwc.o)
                0x0800b0d0                _fputwc_r
 .text._fstat_r
                0x0800b138       0x2c d:/environment/gcc-arm-none-eabi/bin/../lib/gcc/arm-none-eabi/9.2.1/../../../../arm-none-eabi/lib/thumb/v7-m/nofp\libg.a(lib_a-fstatr.o)
                0x0800b138                _fstat_r
 .text._isatty_r
                0x0800b164       0x24 d:/environment/gcc-arm-none-eabi/bin/../lib/gcc/arm-none-eabi/9.2.1/../../../../arm-none-eabi/lib/thumb/v7-m/nofp\libg.a(lib_a-isattyr.o)
                0x0800b164                _isatty_r
 .text.__locale_mb_cur_max
                0x0800b188        0xc d:/environment/gcc-arm-none-eabi/bin/../lib/gcc/arm-none-eabi/9.2.1/../../../../arm-none-eabi/lib/thumb/v7-m/nofp\libg.a(lib_a-locale.o)
                0x0800b188                __locale_mb_cur_max
 .text._lseek_r
                0x0800b194       0x2c d:/environment/gcc-arm-none-eabi/bin/../lib/gcc/arm-none-eabi/9.2.1/../../../../arm-none-eabi/lib/thumb/v7-m/nofp\libg.a(lib_a-lseekr.o)
                0x0800b194                _lseek_r
 .text.__ascii_mbtowc
                0x0800b1c0       0x2c d:/environment/gcc-arm-none-eabi/bin/../lib/gcc/arm-none-eabi/9.2.1/../../../../arm-none-eabi/lib/thumb/v7-m/nofp\libg.a(lib_a-mbtowc_r.o)
                0x0800b1c0                __ascii_mbtowc
 .text._read_r  0x0800b1ec       0x2c d:/environment/gcc-arm-none-eabi/bin/../lib/gcc/arm-none-eabi/9.2.1/../../../../arm-none-eabi/lib/thumb/v7-m/nofp\libg.a(lib_a-readr.o)
                0x0800b1ec                _read_r
 .text.__swbuf_r
                0x0800b218       0xb0 d:/environment/gcc-arm-none-eabi/bin/../lib/gcc/arm-none-eabi/9.2.1/../../../../arm-none-eabi/lib/thumb/v7-m/nofp\libg.a(lib_a-wbuf.o)
                0x0800b218                __swbuf_r
 .text._wcrtomb_r
                0x0800b2c8       0x3c d:/environment/gcc-arm-none-eabi/bin/../lib/gcc/arm-none-eabi/9.2.1/../../../../arm-none-eabi/lib/thumb/v7-m/nofp\libg.a(lib_a-wcrtomb.o)
                0x0800b2c8                _wcrtomb_r
 .text.__ascii_wctomb
                0x0800b304       0x1c d:/environment/gcc-arm-none-eabi/bin/../lib/gcc/arm-none-eabi/9.2.1/../../../../arm-none-eabi/lib/thumb/v7-m/nofp\libg.a(lib_a-wctomb_r.o)
                0x0800b304                __ascii_wctomb
 .text.asin     0x0800b320       0xb0 d:/environment/gcc-arm-none-eabi/bin/../lib/gcc/arm-none-eabi/9.2.1/../../../../arm-none-eabi/lib/thumb/v7-m/nofp\libm.a(lib_a-w_asin.o)
                0x0800b320                asin
 .text.atan2    0x0800b3d0        0x4 d:/environment/gcc-arm-none-eabi/bin/../lib/gcc/arm-none-eabi/9.2.1/../../../../arm-none-eabi/lib/thumb/v7-m/nofp\libm.a(lib_a-w_atan2.o)
                0x0800b3d0                atan2
 *fill*         0x0800b3d4        0x4 
 .text.__ieee754_asin
                0x0800b3d8      0x47c d:/environment/gcc-arm-none-eabi/bin/../lib/gcc/arm-none-eabi/9.2.1/../../../../arm-none-eabi/lib/thumb/v7-m/nofp\libm.a(lib_a-e_asin.o)
                0x0800b3d8                __ieee754_asin
 *fill*         0x0800b854        0x4 
 .text.__ieee754_atan2
                0x0800b858      0x194 d:/environment/gcc-arm-none-eabi/bin/../lib/gcc/arm-none-eabi/9.2.1/../../../../arm-none-eabi/lib/thumb/v7-m/nofp\libm.a(lib_a-e_atan2.o)
                0x0800b858                __ieee754_atan2
 .text.__ieee754_sqrt
                0x0800b9ec      0x188 d:/environment/gcc-arm-none-eabi/bin/../lib/gcc/arm-none-eabi/9.2.1/../../../../arm-none-eabi/lib/thumb/v7-m/nofp\libm.a(lib_a-e_sqrt.o)
                0x0800b9ec                __ieee754_sqrt
 *fill*         0x0800bb74        0x4 
 .text.atan     0x0800bb78      0x354 d:/environment/gcc-arm-none-eabi/bin/../lib/gcc/arm-none-eabi/9.2.1/../../../../arm-none-eabi/lib/thumb/v7-m/nofp\libm.a(lib_a-s_atan.o)
                0x0800bb78                atan
 .text.fabs     0x0800becc        0x8 d:/environment/gcc-arm-none-eabi/bin/../lib/gcc/arm-none-eabi/9.2.1/../../../../arm-none-eabi/lib/thumb/v7-m/nofp\libm.a(lib_a-s_fabs.o)
                0x0800becc                fabs
 .text.matherr  0x0800bed4        0x4 d:/environment/gcc-arm-none-eabi/bin/../lib/gcc/arm-none-eabi/9.2.1/../../../../arm-none-eabi/lib/thumb/v7-m/nofp\libm.a(lib_a-s_matherr.o)
                0x0800bed4                matherr
 .text.nan      0x0800bed8        0xc d:/environment/gcc-arm-none-eabi/bin/../lib/gcc/arm-none-eabi/9.2.1/../../../../arm-none-eabi/lib/thumb/v7-m/nofp\libm.a(lib_a-s_nan.o)
                0x0800bed8                nan
 *(.glue_7)
 .glue_7        0x0800bee4        0x0 linker stubs
 *(.glue_7t)
 .glue_7t       0x0800bee4        0x0 linker stubs
 *(.eh_frame)
 .eh_frame      0x0800bee4        0x0 d:/environment/gcc-arm-none-eabi/bin/../lib/gcc/arm-none-eabi/9.2.1/thumb/v7-m/nofp/crtbegin.o
 *(.init)
 .init          0x0800bee4        0x4 d:/environment/gcc-arm-none-eabi/bin/../lib/gcc/arm-none-eabi/9.2.1/thumb/v7-m/nofp/crti.o
                0x0800bee4                _init
 .init          0x0800bee8        0x8 d:/environment/gcc-arm-none-eabi/bin/../lib/gcc/arm-none-eabi/9.2.1/thumb/v7-m/nofp/crtn.o
 *(.fini)
 .fini          0x0800bef0        0x4 d:/environment/gcc-arm-none-eabi/bin/../lib/gcc/arm-none-eabi/9.2.1/thumb/v7-m/nofp/crti.o
                0x0800bef0                _fini
 .fini          0x0800bef4        0x8 d:/environment/gcc-arm-none-eabi/bin/../lib/gcc/arm-none-eabi/9.2.1/thumb/v7-m/nofp/crtn.o
                0x0800befc                . = ALIGN (0x4)
                0x0800befc                _etext = .

.vfp11_veneer   0x0800befc        0x0
 .vfp11_veneer  0x0800befc        0x0 linker stubs

.v4_bx          0x0800befc        0x0
 .v4_bx         0x0800befc        0x0 linker stubs

.iplt           0x0800befc        0x0
 .iplt          0x0800befc        0x0 d:/environment/gcc-arm-none-eabi/bin/../lib/gcc/arm-none-eabi/9.2.1/thumb/v7-m/nofp/crtbegin.o

.rodata         0x0800bf00     0x10c8
                0x0800bf00                . = ALIGN (0x4)
 *(.rodata)
 *(.rodata*)
 .rodata.main.str1.4
                0x0800bf00       0xa8 CMakeFiles/13_demo_OLED_FLOAT.elf.dir/Core/Src/main.c.obj
 .rodata.AHBPrescTable
                0x0800bfa8       0x10 CMakeFiles/13_demo_OLED_FLOAT.elf.dir/Core/Src/system_stm32f1xx.c.obj
                0x0800bfa8                AHBPrescTable
 .rodata.APBPrescTable
                0x0800bfb8        0x8 CMakeFiles/13_demo_OLED_FLOAT.elf.dir/Core/Src/system_stm32f1xx.c.obj
                0x0800bfb8                APBPrescTable
 .rodata.DMP_test.str1.4
                0x0800bfc0       0x69 CMakeFiles/13_demo_OLED_FLOAT.elf.dir/Drivers/DMP/DMP_test.c.obj
 *fill*         0x0800c029        0x3 
 .rodata.hw     0x0800c02c        0xc CMakeFiles/13_demo_OLED_FLOAT.elf.dir/Drivers/DMP/inv_mpu.c.obj
                0x0800c02c                hw
 .rodata.reg    0x0800c038       0x1e CMakeFiles/13_demo_OLED_FLOAT.elf.dir/Drivers/DMP/inv_mpu.c.obj
                0x0800c038                reg
 *fill*         0x0800c056        0x2 
 .rodata.test   0x0800c058       0x28 CMakeFiles/13_demo_OLED_FLOAT.elf.dir/Drivers/DMP/inv_mpu.c.obj
                0x0800c058                test
 .rodata.dmp_set_orientation.str1.4
                0x0800c080       0x10 CMakeFiles/13_demo_OLED_FLOAT.elf.dir/Drivers/DMP/inv_mpu_dmp_motion_driver.c.obj
 .rodata.dmp_set_fifo_rate.str1.4
                0x0800c090        0xd CMakeFiles/13_demo_OLED_FLOAT.elf.dir/Drivers/DMP/inv_mpu_dmp_motion_driver.c.obj
 *fill*         0x0800c09d        0x3 
 .rodata.dmp_enable_gyro_cal.str1.4
                0x0800c0a0       0x16 CMakeFiles/13_demo_OLED_FLOAT.elf.dir/Drivers/DMP/inv_mpu_dmp_motion_driver.c.obj
 *fill*         0x0800c0b6        0x2 
 .rodata.dmp_memory
                0x0800c0b8      0xbf6 CMakeFiles/13_demo_OLED_FLOAT.elf.dir/Drivers/DMP/inv_mpu_dmp_motion_driver.c.obj
 *fill*         0x0800ccae        0x2 
 .rodata.HAL_RCC_GetSysClockFreq.str1.4
                0x0800ccb0       0x11 CMakeFiles/13_demo_OLED_FLOAT.elf.dir/Drivers/STM32F1xx_HAL_Driver/Src/stm32f1xx_hal_rcc.c.obj
 *fill*         0x0800ccc1        0x3 
 .rodata._global_impure_ptr
                0x0800ccc4        0x4 d:/environment/gcc-arm-none-eabi/bin/../lib/gcc/arm-none-eabi/9.2.1/../../../../arm-none-eabi/lib/thumb/v7-m/nofp\libg.a(lib_a-impure.o)
                0x0800ccc4                _global_impure_ptr
 .rodata._puts_r.str1.4
                0x0800ccc8        0x2 d:/environment/gcc-arm-none-eabi/bin/../lib/gcc/arm-none-eabi/9.2.1/../../../../arm-none-eabi/lib/thumb/v7-m/nofp\libg.a(lib_a-puts.o)
 *fill*         0x0800ccca        0x2 
 .rodata._vfprintf_r.str1.4
                0x0800cccc       0x42 d:/environment/gcc-arm-none-eabi/bin/../lib/gcc/arm-none-eabi/9.2.1/../../../../arm-none-eabi/lib/thumb/v7-m/nofp\libg.a(lib_a-vfprintf.o)
 *fill*         0x0800cd0e        0x2 
 .rodata.blanks.7360
                0x0800cd10       0x10 d:/environment/gcc-arm-none-eabi/bin/../lib/gcc/arm-none-eabi/9.2.1/../../../../arm-none-eabi/lib/thumb/v7-m/nofp\libg.a(lib_a-vfprintf.o)
 .rodata.zeroes.7361
                0x0800cd20       0x10 d:/environment/gcc-arm-none-eabi/bin/../lib/gcc/arm-none-eabi/9.2.1/../../../../arm-none-eabi/lib/thumb/v7-m/nofp\libg.a(lib_a-vfprintf.o)
 .rodata._dtoa_r.str1.4
                0x0800cd30        0xd d:/environment/gcc-arm-none-eabi/bin/../lib/gcc/arm-none-eabi/9.2.1/../../../../arm-none-eabi/lib/thumb/v7-m/nofp\libg.a(lib_a-dtoa.o)
                                 0x12 (size before relaxing)
 *fill*         0x0800cd3d        0x3 
 .rodata.__mprec_bigtens
                0x0800cd40       0x28 d:/environment/gcc-arm-none-eabi/bin/../lib/gcc/arm-none-eabi/9.2.1/../../../../arm-none-eabi/lib/thumb/v7-m/nofp\libg.a(lib_a-mprec.o)
                0x0800cd40                __mprec_bigtens
 .rodata.__mprec_tens
                0x0800cd68       0xc8 d:/environment/gcc-arm-none-eabi/bin/../lib/gcc/arm-none-eabi/9.2.1/../../../../arm-none-eabi/lib/thumb/v7-m/nofp\libg.a(lib_a-mprec.o)
                0x0800cd68                __mprec_tens
 .rodata.p05.6115
                0x0800ce30        0xc d:/environment/gcc-arm-none-eabi/bin/../lib/gcc/arm-none-eabi/9.2.1/../../../../arm-none-eabi/lib/thumb/v7-m/nofp\libg.a(lib_a-mprec.o)
 .rodata._setlocale_r.str1.4
                0x0800ce3c        0xa d:/environment/gcc-arm-none-eabi/bin/../lib/gcc/arm-none-eabi/9.2.1/../../../../arm-none-eabi/lib/thumb/v7-m/nofp\libg.a(lib_a-locale.o)
                                  0xd (size before relaxing)
 *fill*         0x0800ce46        0x2 
 .rodata.str1.4
                0x0800ce48        0x2 d:/environment/gcc-arm-none-eabi/bin/../lib/gcc/arm-none-eabi/9.2.1/../../../../arm-none-eabi/lib/thumb/v7-m/nofp\libg.a(lib_a-locale.o)
 *fill*         0x0800ce4a        0x2 
 .rodata._ctype_
                0x0800ce4c      0x101 d:/environment/gcc-arm-none-eabi/bin/../lib/gcc/arm-none-eabi/9.2.1/../../../../arm-none-eabi/lib/thumb/v7-m/nofp\libg.a(lib_a-ctype_.o)
                0x0800ce4c                _ctype_
 *fill*         0x0800cf4d        0x3 
 .rodata.asin.str1.4
                0x0800cf50        0x5 d:/environment/gcc-arm-none-eabi/bin/../lib/gcc/arm-none-eabi/9.2.1/../../../../arm-none-eabi/lib/thumb/v7-m/nofp\libm.a(lib_a-w_asin.o)
                                  0x9 (size before relaxing)
 *fill*         0x0800cf55        0x3 
 .rodata.CSWTCH.8
                0x0800cf58       0x18 d:/environment/gcc-arm-none-eabi/bin/../lib/gcc/arm-none-eabi/9.2.1/../../../../arm-none-eabi/lib/thumb/v7-m/nofp\libm.a(lib_a-e_atan2.o)
 .rodata.CSWTCH.9
                0x0800cf70       0x18 d:/environment/gcc-arm-none-eabi/bin/../lib/gcc/arm-none-eabi/9.2.1/../../../../arm-none-eabi/lib/thumb/v7-m/nofp\libm.a(lib_a-e_atan2.o)
 .rodata.atanhi
                0x0800cf88       0x20 d:/environment/gcc-arm-none-eabi/bin/../lib/gcc/arm-none-eabi/9.2.1/../../../../arm-none-eabi/lib/thumb/v7-m/nofp\libm.a(lib_a-s_atan.o)
 .rodata.atanlo
                0x0800cfa8       0x20 d:/environment/gcc-arm-none-eabi/bin/../lib/gcc/arm-none-eabi/9.2.1/../../../../arm-none-eabi/lib/thumb/v7-m/nofp\libm.a(lib_a-s_atan.o)
                0x0800cfc8                . = ALIGN (0x4)

.ARM.extab
 *(.ARM.extab* .gnu.linkonce.armextab.*)

.ARM            0x0800cfc8        0x8
                0x0800cfc8                __exidx_start = .
 *(.ARM.exidx*)
 .ARM.exidx     0x0800cfc8        0x8 d:/environment/gcc-arm-none-eabi/bin/../lib/gcc/arm-none-eabi/9.2.1/thumb/v7-m/nofp\libgcc.a(_udivmoddi4.o)
                0x0800cfd0                __exidx_end = .

.rel.dyn        0x0800cfd0        0x0
 .rel.iplt      0x0800cfd0        0x0 d:/environment/gcc-arm-none-eabi/bin/../lib/gcc/arm-none-eabi/9.2.1/thumb/v7-m/nofp/crtbegin.o

.preinit_array  0x0800cfd0        0x0
                0x0800cfd0                PROVIDE (__preinit_array_start = .)
 *(.preinit_array*)
                0x0800cfd0                PROVIDE (__preinit_array_end = .)

.init_array     0x0800cfd0        0x8
                0x0800cfd0                PROVIDE (__init_array_start = .)
 *(SORT_BY_NAME(.init_array.*))
 .init_array.00000
                0x0800cfd0        0x4 d:/environment/gcc-arm-none-eabi/bin/../lib/gcc/arm-none-eabi/9.2.1/../../../../arm-none-eabi/lib/thumb/v7-m/nofp\libg.a(lib_a-__call_atexit.o)
 *(.init_array*)
 .init_array    0x0800cfd4        0x4 d:/environment/gcc-arm-none-eabi/bin/../lib/gcc/arm-none-eabi/9.2.1/thumb/v7-m/nofp/crtbegin.o
                0x0800cfd8                PROVIDE (__init_array_end = .)

.fini_array     0x0800cfd8        0x4
                0x0800cfd8                PROVIDE (__fini_array_start = .)
 *(SORT_BY_NAME(.fini_array.*))
 *(.fini_array*)
 .fini_array    0x0800cfd8        0x4 d:/environment/gcc-arm-none-eabi/bin/../lib/gcc/arm-none-eabi/9.2.1/thumb/v7-m/nofp/crtbegin.o
                0x0800cfdc                PROVIDE (__fini_array_end = .)
                0x0800cfdc                _sidata = LOADADDR (.data)

.data           0x20000000     0x120c load address 0x0800cfdc
                0x20000000                . = ALIGN (0x4)
                0x20000000                _sdata = .
 *(.data)
 *(.data*)
 .data.F6x8     0x20000000      0x228 CMakeFiles/13_demo_OLED_FLOAT.elf.dir/Core/Src/oled12864.c.obj
                0x20000000                F6x8
 .data.F8X16    0x20000228      0x5f0 CMakeFiles/13_demo_OLED_FLOAT.elf.dir/Core/Src/oled12864.c.obj
                0x20000228                F8X16
 .data.SystemCoreClock
                0x20000818        0x4 CMakeFiles/13_demo_OLED_FLOAT.elf.dir/Core/Src/system_stm32f1xx.c.obj
                0x20000818                SystemCoreClock
 .data.gyro_orientation
                0x2000081c        0x9 CMakeFiles/13_demo_OLED_FLOAT.elf.dir/Drivers/DMP/DMP_test.c.obj
 *fill*         0x20000825        0x3 
 .data.st       0x20000828       0x2c CMakeFiles/13_demo_OLED_FLOAT.elf.dir/Drivers/DMP/inv_mpu.c.obj
 .data.uwTickFreq
                0x20000854        0x1 CMakeFiles/13_demo_OLED_FLOAT.elf.dir/Drivers/STM32F1xx_HAL_Driver/Src/stm32f1xx_hal.c.obj
                0x20000854                uwTickFreq
 *fill*         0x20000855        0x3 
 .data.uwTickPrio
                0x20000858        0x4 CMakeFiles/13_demo_OLED_FLOAT.elf.dir/Drivers/STM32F1xx_HAL_Driver/Src/stm32f1xx_hal.c.obj
                0x20000858                uwTickPrio
 .data._impure_ptr
                0x2000085c        0x4 d:/environment/gcc-arm-none-eabi/bin/../lib/gcc/arm-none-eabi/9.2.1/../../../../arm-none-eabi/lib/thumb/v7-m/nofp\libg.a(lib_a-impure.o)
                0x2000085c                _impure_ptr
 .data.impure_data
                0x20000860      0x428 d:/environment/gcc-arm-none-eabi/bin/../lib/gcc/arm-none-eabi/9.2.1/../../../../arm-none-eabi/lib/thumb/v7-m/nofp\libg.a(lib_a-impure.o)
 .data.__atexit_recursive_mutex
                0x20000c88        0x4 d:/environment/gcc-arm-none-eabi/bin/../lib/gcc/arm-none-eabi/9.2.1/../../../../arm-none-eabi/lib/thumb/v7-m/nofp\libg.a(lib_a-__call_atexit.o)
                0x20000c88                __atexit_recursive_mutex
 .data.__malloc_av_
                0x20000c8c      0x408 d:/environment/gcc-arm-none-eabi/bin/../lib/gcc/arm-none-eabi/9.2.1/../../../../arm-none-eabi/lib/thumb/v7-m/nofp\libg.a(lib_a-mallocr.o)
                0x20000c8c                __malloc_av_
 .data.__malloc_sbrk_base
                0x20001094        0x4 d:/environment/gcc-arm-none-eabi/bin/../lib/gcc/arm-none-eabi/9.2.1/../../../../arm-none-eabi/lib/thumb/v7-m/nofp\libg.a(lib_a-mallocr.o)
                0x20001094                __malloc_sbrk_base
 .data.__malloc_trim_threshold
                0x20001098        0x4 d:/environment/gcc-arm-none-eabi/bin/../lib/gcc/arm-none-eabi/9.2.1/../../../../arm-none-eabi/lib/thumb/v7-m/nofp\libg.a(lib_a-mallocr.o)
                0x20001098                __malloc_trim_threshold
 .data.__global_locale
                0x2000109c      0x16c d:/environment/gcc-arm-none-eabi/bin/../lib/gcc/arm-none-eabi/9.2.1/../../../../arm-none-eabi/lib/thumb/v7-m/nofp\libg.a(lib_a-locale.o)
                0x2000109c                __global_locale
 .data.__fdlib_version
                0x20001208        0x1 d:/environment/gcc-arm-none-eabi/bin/../lib/gcc/arm-none-eabi/9.2.1/../../../../arm-none-eabi/lib/thumb/v7-m/nofp\libm.a(lib_a-s_lib_ver.o)
                0x20001208                __fdlib_version
                0x2000120c                . = ALIGN (0x4)
 *fill*         0x20001209        0x3 
                0x2000120c                _edata = .

.igot.plt       0x2000120c        0x0 load address 0x0800e1e8
 .igot.plt      0x2000120c        0x0 d:/environment/gcc-arm-none-eabi/bin/../lib/gcc/arm-none-eabi/9.2.1/thumb/v7-m/nofp/crtbegin.o
                0x2000120c                . = ALIGN (0x4)

.bss            0x2000120c      0x150 load address 0x0800e1e8
                0x2000120c                _sbss = .
                0x2000120c                __bss_start__ = _sbss
 *(.bss)
 .bss           0x2000120c       0x1c d:/environment/gcc-arm-none-eabi/bin/../lib/gcc/arm-none-eabi/9.2.1/thumb/v7-m/nofp/crtbegin.o
 *(.bss*)
 .bss.hi2c1     0x20001228       0x54 CMakeFiles/13_demo_OLED_FLOAT.elf.dir/Core/Src/i2c.c.obj
                0x20001228                hi2c1
 .bss.IIC_buf   0x2000127c        0xe CMakeFiles/13_demo_OLED_FLOAT.elf.dir/Core/Src/mpu6050.c.obj
                0x2000127c                IIC_buf
 .bss.ax        0x2000128a        0x2 CMakeFiles/13_demo_OLED_FLOAT.elf.dir/Core/Src/mpu6050.c.obj
                0x2000128a                ax
 .bss.ax_cl     0x2000128c        0x2 CMakeFiles/13_demo_OLED_FLOAT.elf.dir/Core/Src/mpu6050.c.obj
                0x2000128c                ax_cl
 .bss.ay        0x2000128e        0x2 CMakeFiles/13_demo_OLED_FLOAT.elf.dir/Core/Src/mpu6050.c.obj
                0x2000128e                ay
 .bss.ay_cl     0x20001290        0x2 CMakeFiles/13_demo_OLED_FLOAT.elf.dir/Core/Src/mpu6050.c.obj
                0x20001290                ay_cl
 .bss.az        0x20001292        0x2 CMakeFiles/13_demo_OLED_FLOAT.elf.dir/Core/Src/mpu6050.c.obj
                0x20001292                az
 .bss.az_cl     0x20001294        0x2 CMakeFiles/13_demo_OLED_FLOAT.elf.dir/Core/Src/mpu6050.c.obj
                0x20001294                az_cl
 .bss.gx        0x20001296        0x2 CMakeFiles/13_demo_OLED_FLOAT.elf.dir/Core/Src/mpu6050.c.obj
                0x20001296                gx
 .bss.gx_cl     0x20001298        0x2 CMakeFiles/13_demo_OLED_FLOAT.elf.dir/Core/Src/mpu6050.c.obj
                0x20001298                gx_cl
 .bss.gy        0x2000129a        0x2 CMakeFiles/13_demo_OLED_FLOAT.elf.dir/Core/Src/mpu6050.c.obj
                0x2000129a                gy
 .bss.gy_cl     0x2000129c        0x2 CMakeFiles/13_demo_OLED_FLOAT.elf.dir/Core/Src/mpu6050.c.obj
                0x2000129c                gy_cl
 .bss.gz        0x2000129e        0x2 CMakeFiles/13_demo_OLED_FLOAT.elf.dir/Core/Src/mpu6050.c.obj
                0x2000129e                gz
 .bss.gz_cl     0x200012a0        0x2 CMakeFiles/13_demo_OLED_FLOAT.elf.dir/Core/Src/mpu6050.c.obj
                0x200012a0                gz_cl
 *fill*         0x200012a2        0x2 
 .bss.heap_end.6023
                0x200012a4        0x4 CMakeFiles/13_demo_OLED_FLOAT.elf.dir/Core/Src/syscalls.c.obj
 .bss.huart1    0x200012a8       0x44 CMakeFiles/13_demo_OLED_FLOAT.elf.dir/Core/Src/usart.c.obj
                0x200012a8                huart1
 .bss.dmp       0x200012ec       0x10 CMakeFiles/13_demo_OLED_FLOAT.elf.dir/Drivers/DMP/inv_mpu_dmp_motion_driver.c.obj
 .bss.uwTick    0x200012fc        0x4 CMakeFiles/13_demo_OLED_FLOAT.elf.dir/Drivers/STM32F1xx_HAL_Driver/Src/stm32f1xx_hal.c.obj
                0x200012fc                uwTick
 .bss.__malloc_current_mallinfo
                0x20001300       0x28 d:/environment/gcc-arm-none-eabi/bin/../lib/gcc/arm-none-eabi/9.2.1/../../../../arm-none-eabi/lib/thumb/v7-m/nofp\libg.a(lib_a-mallocr.o)
                0x20001300                __malloc_current_mallinfo
 .bss.__malloc_max_sbrked_mem
                0x20001328        0x4 d:/environment/gcc-arm-none-eabi/bin/../lib/gcc/arm-none-eabi/9.2.1/../../../../arm-none-eabi/lib/thumb/v7-m/nofp\libg.a(lib_a-mallocr.o)
                0x20001328                __malloc_max_sbrked_mem
 .bss.__malloc_max_total_mem
                0x2000132c        0x4 d:/environment/gcc-arm-none-eabi/bin/../lib/gcc/arm-none-eabi/9.2.1/../../../../arm-none-eabi/lib/thumb/v7-m/nofp\libg.a(lib_a-mallocr.o)
                0x2000132c                __malloc_max_total_mem
 .bss.__malloc_top_pad
                0x20001330        0x4 d:/environment/gcc-arm-none-eabi/bin/../lib/gcc/arm-none-eabi/9.2.1/../../../../arm-none-eabi/lib/thumb/v7-m/nofp\libg.a(lib_a-mallocr.o)
                0x20001330                __malloc_top_pad
 *(COMMON)
 COMMON         0x20001334       0x21 d:/environment/gcc-arm-none-eabi/bin/../lib/gcc/arm-none-eabi/9.2.1/../../../../arm-none-eabi/lib/thumb/v7-m/nofp\libg.a(lib_a-lock.o)
                0x20001334                __lock___atexit_recursive_mutex
                0x20001338                __lock___arc4random_mutex
                0x2000133c                __lock___env_recursive_mutex
                0x20001340                __lock___sinit_recursive_mutex
                0x20001344                __lock___malloc_recursive_mutex
                0x20001348                __lock___at_quick_exit_mutex
                0x2000134c                __lock___dd_hash_mutex
                0x20001350                __lock___tz_mutex
                0x20001354                __lock___sfp_recursive_mutex
 *fill*         0x20001355        0x3 
 COMMON         0x20001358        0x4 d:/environment/gcc-arm-none-eabi/bin/../lib/gcc/arm-none-eabi/9.2.1/../../../../arm-none-eabi/lib/thumb/v7-m/nofp\libg.a(lib_a-reent.o)
                0x20001358                errno
                0x2000135c                . = ALIGN (0x4)
                0x2000135c                _ebss = .
                0x2000135c                __bss_end__ = _ebss

._user_heap_stack
                0x2000135c      0x604 load address 0x0800e1e8
                0x20001360                . = ALIGN (0x8)
 *fill*         0x2000135c        0x4 
                0x20001360                PROVIDE (end = .)
                [!provide]                PROVIDE (_end = .)
                0x20001560                . = (. + _Min_Heap_Size)
 *fill*         0x20001360      0x200 
                0x20001960                . = (. + _Min_Stack_Size)
 *fill*         0x20001560      0x400 
                0x20001960                . = ALIGN (0x8)

/DISCARD/
 libc.a(*)
 libm.a(*)
 libgcc.a(*)

.ARM.attributes
                0x00000000       0x29
 *(.ARM.attributes)
 .ARM.attributes
                0x00000000       0x1d d:/environment/gcc-arm-none-eabi/bin/../lib/gcc/arm-none-eabi/9.2.1/thumb/v7-m/nofp/crti.o
 .ARM.attributes
                0x0000001d       0x2d d:/environment/gcc-arm-none-eabi/bin/../lib/gcc/arm-none-eabi/9.2.1/thumb/v7-m/nofp/crtbegin.o
 .ARM.attributes
                0x0000004a       0x2d CMakeFiles/13_demo_OLED_FLOAT.elf.dir/Core/Src/gpio.c.obj
 .ARM.attributes
                0x00000077       0x2d CMakeFiles/13_demo_OLED_FLOAT.elf.dir/Core/Src/i2c.c.obj
 .ARM.attributes
                0x000000a4       0x2d CMakeFiles/13_demo_OLED_FLOAT.elf.dir/Core/Src/main.c.obj
 .ARM.attributes
                0x000000d1       0x2d CMakeFiles/13_demo_OLED_FLOAT.elf.dir/Core/Src/mpu6050.c.obj
 .ARM.attributes
                0x000000fe       0x2d CMakeFiles/13_demo_OLED_FLOAT.elf.dir/Core/Src/oled12864.c.obj
 .ARM.attributes
                0x0000012b       0x2d CMakeFiles/13_demo_OLED_FLOAT.elf.dir/Core/Src/stm32f1xx_hal_msp.c.obj
 .ARM.attributes
                0x00000158       0x2d CMakeFiles/13_demo_OLED_FLOAT.elf.dir/Core/Src/stm32f1xx_it.c.obj
 .ARM.attributes
                0x00000185       0x2d CMakeFiles/13_demo_OLED_FLOAT.elf.dir/Core/Src/syscalls.c.obj
 .ARM.attributes
                0x000001b2       0x2d CMakeFiles/13_demo_OLED_FLOAT.elf.dir/Core/Src/system_stm32f1xx.c.obj
 .ARM.attributes
                0x000001df       0x2d CMakeFiles/13_demo_OLED_FLOAT.elf.dir/Core/Src/usart.c.obj
 .ARM.attributes
                0x0000020c       0x2d CMakeFiles/13_demo_OLED_FLOAT.elf.dir/Drivers/DMP/DMP_test.c.obj
 .ARM.attributes
                0x00000239       0x2d CMakeFiles/13_demo_OLED_FLOAT.elf.dir/Drivers/DMP/inv_mpu.c.obj
 .ARM.attributes
                0x00000266       0x2d CMakeFiles/13_demo_OLED_FLOAT.elf.dir/Drivers/DMP/inv_mpu_dmp_motion_driver.c.obj
 .ARM.attributes
                0x00000293       0x2d CMakeFiles/13_demo_OLED_FLOAT.elf.dir/Drivers/STM32F1xx_HAL_Driver/Src/stm32f1xx_hal.c.obj
 .ARM.attributes
                0x000002c0       0x2d CMakeFiles/13_demo_OLED_FLOAT.elf.dir/Drivers/STM32F1xx_HAL_Driver/Src/stm32f1xx_hal_cortex.c.obj
 .ARM.attributes
                0x000002ed       0x2d CMakeFiles/13_demo_OLED_FLOAT.elf.dir/Drivers/STM32F1xx_HAL_Driver/Src/stm32f1xx_hal_gpio.c.obj
 .ARM.attributes
                0x0000031a       0x2d CMakeFiles/13_demo_OLED_FLOAT.elf.dir/Drivers/STM32F1xx_HAL_Driver/Src/stm32f1xx_hal_i2c.c.obj
 .ARM.attributes
                0x00000347       0x2d CMakeFiles/13_demo_OLED_FLOAT.elf.dir/Drivers/STM32F1xx_HAL_Driver/Src/stm32f1xx_hal_rcc.c.obj
 .ARM.attributes
                0x00000374       0x2d CMakeFiles/13_demo_OLED_FLOAT.elf.dir/Drivers/STM32F1xx_HAL_Driver/Src/stm32f1xx_hal_uart.c.obj
 .ARM.attributes
                0x000003a1       0x21 CMakeFiles/13_demo_OLED_FLOAT.elf.dir/startup/startup_stm32f103xb.s.obj
 .ARM.attributes
                0x000003c2       0x1d d:/environment/gcc-arm-none-eabi/bin/../lib/gcc/arm-none-eabi/9.2.1/thumb/v7-m/nofp\libgcc.a(_arm_addsubdf3.o)
 .ARM.attributes
                0x000003df       0x1d d:/environment/gcc-arm-none-eabi/bin/../lib/gcc/arm-none-eabi/9.2.1/thumb/v7-m/nofp\libgcc.a(_arm_truncdfsf2.o)
 .ARM.attributes
                0x000003fc       0x1d d:/environment/gcc-arm-none-eabi/bin/../lib/gcc/arm-none-eabi/9.2.1/thumb/v7-m/nofp\libgcc.a(_arm_addsubsf3.o)
 .ARM.attributes
                0x00000419       0x1d d:/environment/gcc-arm-none-eabi/bin/../lib/gcc/arm-none-eabi/9.2.1/thumb/v7-m/nofp\libgcc.a(_arm_muldivsf3.o)
 .ARM.attributes
                0x00000436       0x1d d:/environment/gcc-arm-none-eabi/bin/../lib/gcc/arm-none-eabi/9.2.1/thumb/v7-m/nofp\libgcc.a(_arm_cmpsf2.o)
 .ARM.attributes
                0x00000453       0x1d d:/environment/gcc-arm-none-eabi/bin/../lib/gcc/arm-none-eabi/9.2.1/thumb/v7-m/nofp\libgcc.a(_arm_fixsfsi.o)
 .ARM.attributes
                0x00000470       0x1d d:/environment/gcc-arm-none-eabi/bin/../lib/gcc/arm-none-eabi/9.2.1/thumb/v7-m/nofp\libgcc.a(_arm_fixunssfsi.o)
 .ARM.attributes
                0x0000048d       0x1d d:/environment/gcc-arm-none-eabi/bin/../lib/gcc/arm-none-eabi/9.2.1/thumb/v7-m/nofp\libgcc.a(_aeabi_ldivmod.o)
 .ARM.attributes
                0x000004aa       0x2d d:/environment/gcc-arm-none-eabi/bin/../lib/gcc/arm-none-eabi/9.2.1/thumb/v7-m/nofp\libgcc.a(_udivmoddi4.o)
 .ARM.attributes
                0x000004d7       0x1d d:/environment/gcc-arm-none-eabi/bin/../lib/gcc/arm-none-eabi/9.2.1/thumb/v7-m/nofp\libgcc.a(_dvmd_tls.o)
 .ARM.attributes
                0x000004f4       0x2d d:/environment/gcc-arm-none-eabi/bin/../lib/gcc/arm-none-eabi/9.2.1/../../../../arm-none-eabi/lib/thumb/v7-m/nofp\libg.a(lib_a-errno.o)
 .ARM.attributes
                0x00000521       0x2d d:/environment/gcc-arm-none-eabi/bin/../lib/gcc/arm-none-eabi/9.2.1/../../../../arm-none-eabi/lib/thumb/v7-m/nofp\libg.a(lib_a-impure.o)
 .ARM.attributes
                0x0000054e       0x2d d:/environment/gcc-arm-none-eabi/bin/../lib/gcc/arm-none-eabi/9.2.1/../../../../arm-none-eabi/lib/thumb/v7-m/nofp\libg.a(lib_a-init.o)
 .ARM.attributes
                0x0000057b       0x2d d:/environment/gcc-arm-none-eabi/bin/../lib/gcc/arm-none-eabi/9.2.1/../../../../arm-none-eabi/lib/thumb/v7-m/nofp\libg.a(lib_a-memcmp.o)
 .ARM.attributes
                0x000005a8       0x2d d:/environment/gcc-arm-none-eabi/bin/../lib/gcc/arm-none-eabi/9.2.1/../../../../arm-none-eabi/lib/thumb/v7-m/nofp\libg.a(lib_a-memset.o)
 .ARM.attributes
                0x000005d5       0x2d d:/environment/gcc-arm-none-eabi/bin/../lib/gcc/arm-none-eabi/9.2.1/../../../../arm-none-eabi/lib/thumb/v7-m/nofp\libg.a(lib_a-printf.o)
 .ARM.attributes
                0x00000602       0x2d d:/environment/gcc-arm-none-eabi/bin/../lib/gcc/arm-none-eabi/9.2.1/../../../../arm-none-eabi/lib/thumb/v7-m/nofp\libg.a(lib_a-puts.o)
 .ARM.attributes
                0x0000062f       0x2d d:/environment/gcc-arm-none-eabi/bin/../lib/gcc/arm-none-eabi/9.2.1/../../../../arm-none-eabi/lib/thumb/v7-m/nofp\libg.a(lib_a-strlen-stub.o)
 .ARM.attributes
                0x0000065c       0x2d d:/environment/gcc-arm-none-eabi/bin/../lib/gcc/arm-none-eabi/9.2.1/../../../../arm-none-eabi/lib/thumb/v7-m/nofp\libg.a(lib_a-vfprintf.o)
 .ARM.attributes
                0x00000689       0x2d d:/environment/gcc-arm-none-eabi/bin/../lib/gcc/arm-none-eabi/9.2.1/../../../../arm-none-eabi/lib/thumb/v7-m/nofp\libg.a(lib_a-wsetup.o)
 .ARM.attributes
                0x000006b6       0x2d d:/environment/gcc-arm-none-eabi/bin/../lib/gcc/arm-none-eabi/9.2.1/../../../../arm-none-eabi/lib/thumb/v7-m/nofp\libg.a(lib_a-__call_atexit.o)
 .ARM.attributes
                0x000006e3       0x2d d:/environment/gcc-arm-none-eabi/bin/../lib/gcc/arm-none-eabi/9.2.1/../../../../arm-none-eabi/lib/thumb/v7-m/nofp\libg.a(lib_a-atexit.o)
 .ARM.attributes
                0x00000710       0x2d d:/environment/gcc-arm-none-eabi/bin/../lib/gcc/arm-none-eabi/9.2.1/../../../../arm-none-eabi/lib/thumb/v7-m/nofp\libg.a(lib_a-dtoa.o)
 .ARM.attributes
                0x0000073d       0x2d d:/environment/gcc-arm-none-eabi/bin/../lib/gcc/arm-none-eabi/9.2.1/../../../../arm-none-eabi/lib/thumb/v7-m/nofp\libg.a(lib_a-fflush.o)
 .ARM.attributes
                0x0000076a       0x2d d:/environment/gcc-arm-none-eabi/bin/../lib/gcc/arm-none-eabi/9.2.1/../../../../arm-none-eabi/lib/thumb/v7-m/nofp\libg.a(lib_a-findfp.o)
 .ARM.attributes
                0x00000797       0x2d d:/environment/gcc-arm-none-eabi/bin/../lib/gcc/arm-none-eabi/9.2.1/../../../../arm-none-eabi/lib/thumb/v7-m/nofp\libg.a(lib_a-fini.o)
 .ARM.attributes
                0x000007c4       0x2d d:/environment/gcc-arm-none-eabi/bin/../lib/gcc/arm-none-eabi/9.2.1/../../../../arm-none-eabi/lib/thumb/v7-m/nofp\libg.a(lib_a-freer.o)
 .ARM.attributes
                0x000007f1       0x2d d:/environment/gcc-arm-none-eabi/bin/../lib/gcc/arm-none-eabi/9.2.1/../../../../arm-none-eabi/lib/thumb/v7-m/nofp\libg.a(lib_a-fvwrite.o)
 .ARM.attributes
                0x0000081e       0x2d d:/environment/gcc-arm-none-eabi/bin/../lib/gcc/arm-none-eabi/9.2.1/../../../../arm-none-eabi/lib/thumb/v7-m/nofp\libg.a(lib_a-fwalk.o)
 .ARM.attributes
                0x0000084b       0x2d d:/environment/gcc-arm-none-eabi/bin/../lib/gcc/arm-none-eabi/9.2.1/../../../../arm-none-eabi/lib/thumb/v7-m/nofp\libg.a(lib_a-localeconv.o)
 .ARM.attributes
                0x00000878       0x2d d:/environment/gcc-arm-none-eabi/bin/../lib/gcc/arm-none-eabi/9.2.1/../../../../arm-none-eabi/lib/thumb/v7-m/nofp\libg.a(lib_a-lock.o)
 .ARM.attributes
                0x000008a5       0x2d d:/environment/gcc-arm-none-eabi/bin/../lib/gcc/arm-none-eabi/9.2.1/../../../../arm-none-eabi/lib/thumb/v7-m/nofp\libg.a(lib_a-makebuf.o)
 .ARM.attributes
                0x000008d2       0x2d d:/environment/gcc-arm-none-eabi/bin/../lib/gcc/arm-none-eabi/9.2.1/../../../../arm-none-eabi/lib/thumb/v7-m/nofp\libg.a(lib_a-mallocr.o)
 .ARM.attributes
                0x000008ff       0x2d d:/environment/gcc-arm-none-eabi/bin/../lib/gcc/arm-none-eabi/9.2.1/../../../../arm-none-eabi/lib/thumb/v7-m/nofp\libg.a(lib_a-memchr-stub.o)
 .ARM.attributes
                0x0000092c       0x1b d:/environment/gcc-arm-none-eabi/bin/../lib/gcc/arm-none-eabi/9.2.1/../../../../arm-none-eabi/lib/thumb/v7-m/nofp\libg.a(lib_a-memcpy.o)
 .ARM.attributes
                0x00000947       0x2d d:/environment/gcc-arm-none-eabi/bin/../lib/gcc/arm-none-eabi/9.2.1/../../../../arm-none-eabi/lib/thumb/v7-m/nofp\libg.a(lib_a-memmove.o)
 .ARM.attributes
                0x00000974       0x2d d:/environment/gcc-arm-none-eabi/bin/../lib/gcc/arm-none-eabi/9.2.1/../../../../arm-none-eabi/lib/thumb/v7-m/nofp\libg.a(lib_a-mlock.o)
 .ARM.attributes
                0x000009a1       0x2d d:/environment/gcc-arm-none-eabi/bin/../lib/gcc/arm-none-eabi/9.2.1/../../../../arm-none-eabi/lib/thumb/v7-m/nofp\libg.a(lib_a-mprec.o)
 .ARM.attributes
                0x000009ce       0x2d d:/environment/gcc-arm-none-eabi/bin/../lib/gcc/arm-none-eabi/9.2.1/../../../../arm-none-eabi/lib/thumb/v7-m/nofp\libg.a(lib_a-reallocr.o)
 .ARM.attributes
                0x000009fb       0x2d d:/environment/gcc-arm-none-eabi/bin/../lib/gcc/arm-none-eabi/9.2.1/../../../../arm-none-eabi/lib/thumb/v7-m/nofp\libg.a(lib_a-s_frexp.o)
 .ARM.attributes
                0x00000a28       0x2d d:/environment/gcc-arm-none-eabi/bin/../lib/gcc/arm-none-eabi/9.2.1/../../../../arm-none-eabi/lib/thumb/v7-m/nofp\libg.a(lib_a-sbrkr.o)
 .ARM.attributes
                0x00000a55       0x2d d:/environment/gcc-arm-none-eabi/bin/../lib/gcc/arm-none-eabi/9.2.1/../../../../arm-none-eabi/lib/thumb/v7-m/nofp\libg.a(lib_a-stdio.o)
 .ARM.attributes
                0x00000a82       0x2d d:/environment/gcc-arm-none-eabi/bin/../lib/gcc/arm-none-eabi/9.2.1/../../../../arm-none-eabi/lib/thumb/v7-m/nofp\libg.a(lib_a-strncpy.o)
 .ARM.attributes
                0x00000aaf       0x2d d:/environment/gcc-arm-none-eabi/bin/../lib/gcc/arm-none-eabi/9.2.1/../../../../arm-none-eabi/lib/thumb/v7-m/nofp\libg.a(lib_a-vfiprintf.o)
 .ARM.attributes
                0x00000adc       0x2d d:/environment/gcc-arm-none-eabi/bin/../lib/gcc/arm-none-eabi/9.2.1/../../../../arm-none-eabi/lib/thumb/v7-m/nofp\libg.a(lib_a-writer.o)
 .ARM.attributes
                0x00000b09       0x2d d:/environment/gcc-arm-none-eabi/bin/../lib/gcc/arm-none-eabi/9.2.1/../../../../arm-none-eabi/lib/thumb/v7-m/nofp\libg.a(lib_a-__atexit.o)
 .ARM.attributes
                0x00000b36       0x2d d:/environment/gcc-arm-none-eabi/bin/../lib/gcc/arm-none-eabi/9.2.1/../../../../arm-none-eabi/lib/thumb/v7-m/nofp\libg.a(lib_a-callocr.o)
 .ARM.attributes
                0x00000b63       0x2d d:/environment/gcc-arm-none-eabi/bin/../lib/gcc/arm-none-eabi/9.2.1/../../../../arm-none-eabi/lib/thumb/v7-m/nofp\libg.a(lib_a-closer.o)
 .ARM.attributes
                0x00000b90       0x2d d:/environment/gcc-arm-none-eabi/bin/../lib/gcc/arm-none-eabi/9.2.1/../../../../arm-none-eabi/lib/thumb/v7-m/nofp\libg.a(lib_a-fclose.o)
 .ARM.attributes
                0x00000bbd       0x2d d:/environment/gcc-arm-none-eabi/bin/../lib/gcc/arm-none-eabi/9.2.1/../../../../arm-none-eabi/lib/thumb/v7-m/nofp\libg.a(lib_a-fputwc.o)
 .ARM.attributes
                0x00000bea       0x2d d:/environment/gcc-arm-none-eabi/bin/../lib/gcc/arm-none-eabi/9.2.1/../../../../arm-none-eabi/lib/thumb/v7-m/nofp\libg.a(lib_a-fstatr.o)
 .ARM.attributes
                0x00000c17       0x2d d:/environment/gcc-arm-none-eabi/bin/../lib/gcc/arm-none-eabi/9.2.1/../../../../arm-none-eabi/lib/thumb/v7-m/nofp\libg.a(lib_a-isattyr.o)
 .ARM.attributes
                0x00000c44       0x2d d:/environment/gcc-arm-none-eabi/bin/../lib/gcc/arm-none-eabi/9.2.1/../../../../arm-none-eabi/lib/thumb/v7-m/nofp\libg.a(lib_a-locale.o)
 .ARM.attributes
                0x00000c71       0x2d d:/environment/gcc-arm-none-eabi/bin/../lib/gcc/arm-none-eabi/9.2.1/../../../../arm-none-eabi/lib/thumb/v7-m/nofp\libg.a(lib_a-lseekr.o)
 .ARM.attributes
                0x00000c9e       0x2d d:/environment/gcc-arm-none-eabi/bin/../lib/gcc/arm-none-eabi/9.2.1/../../../../arm-none-eabi/lib/thumb/v7-m/nofp\libg.a(lib_a-mbtowc_r.o)
 .ARM.attributes
                0x00000ccb       0x2d d:/environment/gcc-arm-none-eabi/bin/../lib/gcc/arm-none-eabi/9.2.1/../../../../arm-none-eabi/lib/thumb/v7-m/nofp\libg.a(lib_a-readr.o)
 .ARM.attributes
                0x00000cf8       0x2d d:/environment/gcc-arm-none-eabi/bin/../lib/gcc/arm-none-eabi/9.2.1/../../../../arm-none-eabi/lib/thumb/v7-m/nofp\libg.a(lib_a-reent.o)
 .ARM.attributes
                0x00000d25       0x2d d:/environment/gcc-arm-none-eabi/bin/../lib/gcc/arm-none-eabi/9.2.1/../../../../arm-none-eabi/lib/thumb/v7-m/nofp\libg.a(lib_a-wbuf.o)
 .ARM.attributes
                0x00000d52       0x2d d:/environment/gcc-arm-none-eabi/bin/../lib/gcc/arm-none-eabi/9.2.1/../../../../arm-none-eabi/lib/thumb/v7-m/nofp\libg.a(lib_a-wcrtomb.o)
 .ARM.attributes
                0x00000d7f       0x2d d:/environment/gcc-arm-none-eabi/bin/../lib/gcc/arm-none-eabi/9.2.1/../../../../arm-none-eabi/lib/thumb/v7-m/nofp\libg.a(lib_a-wctomb_r.o)
 .ARM.attributes
                0x00000dac       0x2d d:/environment/gcc-arm-none-eabi/bin/../lib/gcc/arm-none-eabi/9.2.1/../../../../arm-none-eabi/lib/thumb/v7-m/nofp\libg.a(lib_a-ctype_.o)
 .ARM.attributes
                0x00000dd9       0x1d d:/environment/gcc-arm-none-eabi/bin/../lib/gcc/arm-none-eabi/9.2.1/thumb/v7-m/nofp\libgcc.a(_arm_muldivdf3.o)
 .ARM.attributes
                0x00000df6       0x1d d:/environment/gcc-arm-none-eabi/bin/../lib/gcc/arm-none-eabi/9.2.1/thumb/v7-m/nofp\libgcc.a(_arm_cmpdf2.o)
 .ARM.attributes
                0x00000e13       0x1d d:/environment/gcc-arm-none-eabi/bin/../lib/gcc/arm-none-eabi/9.2.1/thumb/v7-m/nofp\libgcc.a(_arm_unorddf2.o)
 .ARM.attributes
                0x00000e30       0x1d d:/environment/gcc-arm-none-eabi/bin/../lib/gcc/arm-none-eabi/9.2.1/thumb/v7-m/nofp\libgcc.a(_arm_fixdfsi.o)
 .ARM.attributes
                0x00000e4d       0x1d d:/environment/gcc-arm-none-eabi/bin/../lib/gcc/arm-none-eabi/9.2.1/thumb/v7-m/nofp\libgcc.a(_aeabi_uldivmod.o)
 .ARM.attributes
                0x00000e6a       0x1d d:/environment/gcc-arm-none-eabi/bin/../lib/gcc/arm-none-eabi/9.2.1/thumb/v7-m/nofp/crtn.o
OUTPUT(13_demo_OLED_FLOAT.elf elf32-littlearm)

.debug_info     0x00000000    0x19b89
 .debug_info    0x00000000      0xd14 CMakeFiles/13_demo_OLED_FLOAT.elf.dir/Core/Src/gpio.c.obj
 .debug_info    0x00000d14     0x1213 CMakeFiles/13_demo_OLED_FLOAT.elf.dir/Core/Src/i2c.c.obj
 .debug_info    0x00001f27     0x162d CMakeFiles/13_demo_OLED_FLOAT.elf.dir/Core/Src/main.c.obj
 .debug_info    0x00003554     0x1313 CMakeFiles/13_demo_OLED_FLOAT.elf.dir/Core/Src/mpu6050.c.obj
 .debug_info    0x00004867     0x2af6 CMakeFiles/13_demo_OLED_FLOAT.elf.dir/Core/Src/oled12864.c.obj
 .debug_info    0x0000735d      0xb9f CMakeFiles/13_demo_OLED_FLOAT.elf.dir/Core/Src/stm32f1xx_hal_msp.c.obj
 .debug_info    0x00007efc      0xadb CMakeFiles/13_demo_OLED_FLOAT.elf.dir/Core/Src/stm32f1xx_it.c.obj
 .debug_info    0x000089d7     0x112a CMakeFiles/13_demo_OLED_FLOAT.elf.dir/Core/Src/syscalls.c.obj
 .debug_info    0x00009b01      0x2c9 CMakeFiles/13_demo_OLED_FLOAT.elf.dir/Core/Src/system_stm32f1xx.c.obj
 .debug_info    0x00009dca     0x11fb CMakeFiles/13_demo_OLED_FLOAT.elf.dir/Core/Src/usart.c.obj
 .debug_info    0x0000afc5     0x1212 CMakeFiles/13_demo_OLED_FLOAT.elf.dir/Drivers/DMP/DMP_test.c.obj
 .debug_info    0x0000c1d7     0x3709 CMakeFiles/13_demo_OLED_FLOAT.elf.dir/Drivers/DMP/inv_mpu.c.obj
 .debug_info    0x0000f8e0     0x2178 CMakeFiles/13_demo_OLED_FLOAT.elf.dir/Drivers/DMP/inv_mpu_dmp_motion_driver.c.obj
 .debug_info    0x00011a58      0x831 CMakeFiles/13_demo_OLED_FLOAT.elf.dir/Drivers/STM32F1xx_HAL_Driver/Src/stm32f1xx_hal.c.obj
 .debug_info    0x00012289      0xe46 CMakeFiles/13_demo_OLED_FLOAT.elf.dir/Drivers/STM32F1xx_HAL_Driver/Src/stm32f1xx_hal_cortex.c.obj
 .debug_info    0x000130cf      0x75b CMakeFiles/13_demo_OLED_FLOAT.elf.dir/Drivers/STM32F1xx_HAL_Driver/Src/stm32f1xx_hal_gpio.c.obj
 .debug_info    0x0001382a     0x3b33 CMakeFiles/13_demo_OLED_FLOAT.elf.dir/Drivers/STM32F1xx_HAL_Driver/Src/stm32f1xx_hal_i2c.c.obj
 .debug_info    0x0001735d      0xaab CMakeFiles/13_demo_OLED_FLOAT.elf.dir/Drivers/STM32F1xx_HAL_Driver/Src/stm32f1xx_hal_rcc.c.obj
 .debug_info    0x00017e08     0x1d5f CMakeFiles/13_demo_OLED_FLOAT.elf.dir/Drivers/STM32F1xx_HAL_Driver/Src/stm32f1xx_hal_uart.c.obj
 .debug_info    0x00019b67       0x22 CMakeFiles/13_demo_OLED_FLOAT.elf.dir/startup/startup_stm32f103xb.s.obj

.debug_abbrev   0x00000000     0x349e
 .debug_abbrev  0x00000000      0x258 CMakeFiles/13_demo_OLED_FLOAT.elf.dir/Core/Src/gpio.c.obj
 .debug_abbrev  0x00000258      0x299 CMakeFiles/13_demo_OLED_FLOAT.elf.dir/Core/Src/i2c.c.obj
 .debug_abbrev  0x000004f1      0x2d4 CMakeFiles/13_demo_OLED_FLOAT.elf.dir/Core/Src/main.c.obj
 .debug_abbrev  0x000007c5      0x2f6 CMakeFiles/13_demo_OLED_FLOAT.elf.dir/Core/Src/mpu6050.c.obj
 .debug_abbrev  0x00000abb      0x433 CMakeFiles/13_demo_OLED_FLOAT.elf.dir/Core/Src/oled12864.c.obj
 .debug_abbrev  0x00000eee      0x23c CMakeFiles/13_demo_OLED_FLOAT.elf.dir/Core/Src/stm32f1xx_hal_msp.c.obj
 .debug_abbrev  0x0000112a      0x22c CMakeFiles/13_demo_OLED_FLOAT.elf.dir/Core/Src/stm32f1xx_it.c.obj
 .debug_abbrev  0x00001356      0x31e CMakeFiles/13_demo_OLED_FLOAT.elf.dir/Core/Src/syscalls.c.obj
 .debug_abbrev  0x00001674      0x151 CMakeFiles/13_demo_OLED_FLOAT.elf.dir/Core/Src/system_stm32f1xx.c.obj
 .debug_abbrev  0x000017c5      0x2cb CMakeFiles/13_demo_OLED_FLOAT.elf.dir/Core/Src/usart.c.obj
 .debug_abbrev  0x00001a90      0x353 CMakeFiles/13_demo_OLED_FLOAT.elf.dir/Drivers/DMP/DMP_test.c.obj
 .debug_abbrev  0x00001de3      0x3cb CMakeFiles/13_demo_OLED_FLOAT.elf.dir/Drivers/DMP/inv_mpu.c.obj
 .debug_abbrev  0x000021ae      0x36c CMakeFiles/13_demo_OLED_FLOAT.elf.dir/Drivers/DMP/inv_mpu_dmp_motion_driver.c.obj
 .debug_abbrev  0x0000251a      0x219 CMakeFiles/13_demo_OLED_FLOAT.elf.dir/Drivers/STM32F1xx_HAL_Driver/Src/stm32f1xx_hal.c.obj
 .debug_abbrev  0x00002733      0x367 CMakeFiles/13_demo_OLED_FLOAT.elf.dir/Drivers/STM32F1xx_HAL_Driver/Src/stm32f1xx_hal_cortex.c.obj
 .debug_abbrev  0x00002a9a      0x213 CMakeFiles/13_demo_OLED_FLOAT.elf.dir/Drivers/STM32F1xx_HAL_Driver/Src/stm32f1xx_hal_gpio.c.obj
 .debug_abbrev  0x00002cad      0x2bf CMakeFiles/13_demo_OLED_FLOAT.elf.dir/Drivers/STM32F1xx_HAL_Driver/Src/stm32f1xx_hal_i2c.c.obj
 .debug_abbrev  0x00002f6c      0x28d CMakeFiles/13_demo_OLED_FLOAT.elf.dir/Drivers/STM32F1xx_HAL_Driver/Src/stm32f1xx_hal_rcc.c.obj
 .debug_abbrev  0x000031f9      0x293 CMakeFiles/13_demo_OLED_FLOAT.elf.dir/Drivers/STM32F1xx_HAL_Driver/Src/stm32f1xx_hal_uart.c.obj
 .debug_abbrev  0x0000348c       0x12 CMakeFiles/13_demo_OLED_FLOAT.elf.dir/startup/startup_stm32f103xb.s.obj

.debug_aranges  0x00000000      0xd68
 .debug_aranges
                0x00000000       0x20 CMakeFiles/13_demo_OLED_FLOAT.elf.dir/Core/Src/gpio.c.obj
 .debug_aranges
                0x00000020       0x30 CMakeFiles/13_demo_OLED_FLOAT.elf.dir/Core/Src/i2c.c.obj
 .debug_aranges
                0x00000050       0x30 CMakeFiles/13_demo_OLED_FLOAT.elf.dir/Core/Src/main.c.obj
 .debug_aranges
                0x00000080       0x40 CMakeFiles/13_demo_OLED_FLOAT.elf.dir/Core/Src/mpu6050.c.obj
 .debug_aranges
                0x000000c0      0x130 CMakeFiles/13_demo_OLED_FLOAT.elf.dir/Core/Src/oled12864.c.obj
 .debug_aranges
                0x000001f0       0x20 CMakeFiles/13_demo_OLED_FLOAT.elf.dir/Core/Src/stm32f1xx_hal_msp.c.obj
 .debug_aranges
                0x00000210       0x60 CMakeFiles/13_demo_OLED_FLOAT.elf.dir/Core/Src/stm32f1xx_it.c.obj
 .debug_aranges
                0x00000270       0xb0 CMakeFiles/13_demo_OLED_FLOAT.elf.dir/Core/Src/syscalls.c.obj
 .debug_aranges
                0x00000320       0x28 CMakeFiles/13_demo_OLED_FLOAT.elf.dir/Core/Src/system_stm32f1xx.c.obj
 .debug_aranges
                0x00000348       0x38 CMakeFiles/13_demo_OLED_FLOAT.elf.dir/Core/Src/usart.c.obj
 .debug_aranges
                0x00000380       0x50 CMakeFiles/13_demo_OLED_FLOAT.elf.dir/Drivers/DMP/DMP_test.c.obj
 .debug_aranges
                0x000003d0      0x180 CMakeFiles/13_demo_OLED_FLOAT.elf.dir/Drivers/DMP/inv_mpu.c.obj
 .debug_aranges
                0x00000550       0xf8 CMakeFiles/13_demo_OLED_FLOAT.elf.dir/Drivers/DMP/inv_mpu_dmp_motion_driver.c.obj
 .debug_aranges
                0x00000648       0xe0 CMakeFiles/13_demo_OLED_FLOAT.elf.dir/Drivers/STM32F1xx_HAL_Driver/Src/stm32f1xx_hal.c.obj
 .debug_aranges
                0x00000728       0x90 CMakeFiles/13_demo_OLED_FLOAT.elf.dir/Drivers/STM32F1xx_HAL_Driver/Src/stm32f1xx_hal_cortex.c.obj
 .debug_aranges
                0x000007b8       0x58 CMakeFiles/13_demo_OLED_FLOAT.elf.dir/Drivers/STM32F1xx_HAL_Driver/Src/stm32f1xx_hal_gpio.c.obj
 .debug_aranges
                0x00000810      0x2a0 CMakeFiles/13_demo_OLED_FLOAT.elf.dir/Drivers/STM32F1xx_HAL_Driver/Src/stm32f1xx_hal_i2c.c.obj
 .debug_aranges
                0x00000ab0       0x90 CMakeFiles/13_demo_OLED_FLOAT.elf.dir/Drivers/STM32F1xx_HAL_Driver/Src/stm32f1xx_hal_rcc.c.obj
 .debug_aranges
                0x00000b40      0x200 CMakeFiles/13_demo_OLED_FLOAT.elf.dir/Drivers/STM32F1xx_HAL_Driver/Src/stm32f1xx_hal_uart.c.obj
 .debug_aranges
                0x00000d40       0x28 CMakeFiles/13_demo_OLED_FLOAT.elf.dir/startup/startup_stm32f103xb.s.obj

.debug_ranges   0x00000000      0xd00
 .debug_ranges  0x00000000       0x10 CMakeFiles/13_demo_OLED_FLOAT.elf.dir/Core/Src/gpio.c.obj
 .debug_ranges  0x00000010       0x20 CMakeFiles/13_demo_OLED_FLOAT.elf.dir/Core/Src/i2c.c.obj
 .debug_ranges  0x00000030       0x20 CMakeFiles/13_demo_OLED_FLOAT.elf.dir/Core/Src/main.c.obj
 .debug_ranges  0x00000050       0x30 CMakeFiles/13_demo_OLED_FLOAT.elf.dir/Core/Src/mpu6050.c.obj
 .debug_ranges  0x00000080      0x120 CMakeFiles/13_demo_OLED_FLOAT.elf.dir/Core/Src/oled12864.c.obj
 .debug_ranges  0x000001a0       0x10 CMakeFiles/13_demo_OLED_FLOAT.elf.dir/Core/Src/stm32f1xx_hal_msp.c.obj
 .debug_ranges  0x000001b0       0x50 CMakeFiles/13_demo_OLED_FLOAT.elf.dir/Core/Src/stm32f1xx_it.c.obj
 .debug_ranges  0x00000200       0xa0 CMakeFiles/13_demo_OLED_FLOAT.elf.dir/Core/Src/syscalls.c.obj
 .debug_ranges  0x000002a0       0x18 CMakeFiles/13_demo_OLED_FLOAT.elf.dir/Core/Src/system_stm32f1xx.c.obj
 .debug_ranges  0x000002b8       0x28 CMakeFiles/13_demo_OLED_FLOAT.elf.dir/Core/Src/usart.c.obj
 .debug_ranges  0x000002e0       0x40 CMakeFiles/13_demo_OLED_FLOAT.elf.dir/Drivers/DMP/DMP_test.c.obj
 .debug_ranges  0x00000320      0x1a8 CMakeFiles/13_demo_OLED_FLOAT.elf.dir/Drivers/DMP/inv_mpu.c.obj
 .debug_ranges  0x000004c8       0xe8 CMakeFiles/13_demo_OLED_FLOAT.elf.dir/Drivers/DMP/inv_mpu_dmp_motion_driver.c.obj
 .debug_ranges  0x000005b0       0xd0 CMakeFiles/13_demo_OLED_FLOAT.elf.dir/Drivers/STM32F1xx_HAL_Driver/Src/stm32f1xx_hal.c.obj
 .debug_ranges  0x00000680       0xe0 CMakeFiles/13_demo_OLED_FLOAT.elf.dir/Drivers/STM32F1xx_HAL_Driver/Src/stm32f1xx_hal_cortex.c.obj
 .debug_ranges  0x00000760       0x48 CMakeFiles/13_demo_OLED_FLOAT.elf.dir/Drivers/STM32F1xx_HAL_Driver/Src/stm32f1xx_hal_gpio.c.obj
 .debug_ranges  0x000007a8      0x2a8 CMakeFiles/13_demo_OLED_FLOAT.elf.dir/Drivers/STM32F1xx_HAL_Driver/Src/stm32f1xx_hal_i2c.c.obj
 .debug_ranges  0x00000a50       0xa0 CMakeFiles/13_demo_OLED_FLOAT.elf.dir/Drivers/STM32F1xx_HAL_Driver/Src/stm32f1xx_hal_rcc.c.obj
 .debug_ranges  0x00000af0      0x1f0 CMakeFiles/13_demo_OLED_FLOAT.elf.dir/Drivers/STM32F1xx_HAL_Driver/Src/stm32f1xx_hal_uart.c.obj
 .debug_ranges  0x00000ce0       0x20 CMakeFiles/13_demo_OLED_FLOAT.elf.dir/startup/startup_stm32f103xb.s.obj

.debug_line     0x00000000    0x112d0
 .debug_line    0x00000000      0x363 CMakeFiles/13_demo_OLED_FLOAT.elf.dir/Core/Src/gpio.c.obj
 .debug_line    0x00000363      0x452 CMakeFiles/13_demo_OLED_FLOAT.elf.dir/Core/Src/i2c.c.obj
 .debug_line    0x000007b5      0x5f2 CMakeFiles/13_demo_OLED_FLOAT.elf.dir/Core/Src/main.c.obj
 .debug_line    0x00000da7      0x59e CMakeFiles/13_demo_OLED_FLOAT.elf.dir/Core/Src/mpu6050.c.obj
 .debug_line    0x00001345     0x16b7 CMakeFiles/13_demo_OLED_FLOAT.elf.dir/Core/Src/oled12864.c.obj
 .debug_line    0x000029fc      0x2e4 CMakeFiles/13_demo_OLED_FLOAT.elf.dir/Core/Src/stm32f1xx_hal_msp.c.obj
 .debug_line    0x00002ce0      0x3b0 CMakeFiles/13_demo_OLED_FLOAT.elf.dir/Core/Src/stm32f1xx_it.c.obj
 .debug_line    0x00003090      0x503 CMakeFiles/13_demo_OLED_FLOAT.elf.dir/Core/Src/syscalls.c.obj
 .debug_line    0x00003593      0x326 CMakeFiles/13_demo_OLED_FLOAT.elf.dir/Core/Src/system_stm32f1xx.c.obj
 .debug_line    0x000038b9      0x48c CMakeFiles/13_demo_OLED_FLOAT.elf.dir/Core/Src/usart.c.obj
 .debug_line    0x00003d45      0x71e CMakeFiles/13_demo_OLED_FLOAT.elf.dir/Drivers/DMP/DMP_test.c.obj
 .debug_line    0x00004463     0x240b CMakeFiles/13_demo_OLED_FLOAT.elf.dir/Drivers/DMP/inv_mpu.c.obj
 .debug_line    0x0000686e     0x1257 CMakeFiles/13_demo_OLED_FLOAT.elf.dir/Drivers/DMP/inv_mpu_dmp_motion_driver.c.obj
 .debug_line    0x00007ac5      0x5b6 CMakeFiles/13_demo_OLED_FLOAT.elf.dir/Drivers/STM32F1xx_HAL_Driver/Src/stm32f1xx_hal.c.obj
 .debug_line    0x0000807b      0x70c CMakeFiles/13_demo_OLED_FLOAT.elf.dir/Drivers/STM32F1xx_HAL_Driver/Src/stm32f1xx_hal_cortex.c.obj
 .debug_line    0x00008787      0x6b8 CMakeFiles/13_demo_OLED_FLOAT.elf.dir/Drivers/STM32F1xx_HAL_Driver/Src/stm32f1xx_hal_gpio.c.obj
 .debug_line    0x00008e3f     0x5594 CMakeFiles/13_demo_OLED_FLOAT.elf.dir/Drivers/STM32F1xx_HAL_Driver/Src/stm32f1xx_hal_i2c.c.obj
 .debug_line    0x0000e3d3      0xcd3 CMakeFiles/13_demo_OLED_FLOAT.elf.dir/Drivers/STM32F1xx_HAL_Driver/Src/stm32f1xx_hal_rcc.c.obj
 .debug_line    0x0000f0a6     0x217b CMakeFiles/13_demo_OLED_FLOAT.elf.dir/Drivers/STM32F1xx_HAL_Driver/Src/stm32f1xx_hal_uart.c.obj
 .debug_line    0x00011221       0xaf CMakeFiles/13_demo_OLED_FLOAT.elf.dir/startup/startup_stm32f103xb.s.obj

.debug_str      0x00000000     0x43a6
 .debug_str     0x00000000      0x6fc CMakeFiles/13_demo_OLED_FLOAT.elf.dir/Core/Src/gpio.c.obj
                                0x7ba (size before relaxing)
 .debug_str     0x000006fc      0x4d3 CMakeFiles/13_demo_OLED_FLOAT.elf.dir/Core/Src/i2c.c.obj
                                0xc5f (size before relaxing)
 .debug_str     0x00000bcf      0x3fc CMakeFiles/13_demo_OLED_FLOAT.elf.dir/Core/Src/main.c.obj
                                0xf5f (size before relaxing)
 .debug_str     0x00000fcb       0xba CMakeFiles/13_demo_OLED_FLOAT.elf.dir/Core/Src/mpu6050.c.obj
                                0xc0a (size before relaxing)
 .debug_str     0x00001085      0x385 CMakeFiles/13_demo_OLED_FLOAT.elf.dir/Core/Src/oled12864.c.obj
                                0xab4 (size before relaxing)
 .debug_str     0x0000140a       0x89 CMakeFiles/13_demo_OLED_FLOAT.elf.dir/Core/Src/stm32f1xx_hal_msp.c.obj
                                0x75c (size before relaxing)
 .debug_str     0x00001493       0xe6 CMakeFiles/13_demo_OLED_FLOAT.elf.dir/Core/Src/stm32f1xx_it.c.obj
                                0x773 (size before relaxing)
 .debug_str     0x00001579      0x290 CMakeFiles/13_demo_OLED_FLOAT.elf.dir/Core/Src/syscalls.c.obj
                                0x8a5 (size before relaxing)
 .debug_str     0x00001809       0x81 CMakeFiles/13_demo_OLED_FLOAT.elf.dir/Core/Src/system_stm32f1xx.c.obj
                                0x372 (size before relaxing)
 .debug_str     0x0000188a       0x92 CMakeFiles/13_demo_OLED_FLOAT.elf.dir/Core/Src/usart.c.obj
                                0xbe2 (size before relaxing)
 .debug_str     0x0000191c      0x259 CMakeFiles/13_demo_OLED_FLOAT.elf.dir/Drivers/DMP/DMP_test.c.obj
                                0x990 (size before relaxing)
 .debug_str     0x00001b75      0x877 CMakeFiles/13_demo_OLED_FLOAT.elf.dir/Drivers/DMP/inv_mpu.c.obj
                               0x15a7 (size before relaxing)
 .debug_str     0x000023ec      0x388 CMakeFiles/13_demo_OLED_FLOAT.elf.dir/Drivers/DMP/inv_mpu_dmp_motion_driver.c.obj
                               0x10aa (size before relaxing)
 .debug_str     0x00002774      0x58b CMakeFiles/13_demo_OLED_FLOAT.elf.dir/Drivers/STM32F1xx_HAL_Driver/Src/stm32f1xx_hal.c.obj
                                0x8ef (size before relaxing)
 .debug_str     0x00002cff      0x3ea CMakeFiles/13_demo_OLED_FLOAT.elf.dir/Drivers/STM32F1xx_HAL_Driver/Src/stm32f1xx_hal_cortex.c.obj
                                0xa0b (size before relaxing)
 .debug_str     0x000030e9      0x144 CMakeFiles/13_demo_OLED_FLOAT.elf.dir/Drivers/STM32F1xx_HAL_Driver/Src/stm32f1xx_hal_gpio.c.obj
                                0x55c (size before relaxing)
 .debug_str     0x0000322d      0x900 CMakeFiles/13_demo_OLED_FLOAT.elf.dir/Drivers/STM32F1xx_HAL_Driver/Src/stm32f1xx_hal_i2c.c.obj
                               0x10f2 (size before relaxing)
 .debug_str     0x00003b2d      0x203 CMakeFiles/13_demo_OLED_FLOAT.elf.dir/Drivers/STM32F1xx_HAL_Driver/Src/stm32f1xx_hal_rcc.c.obj
                                0x73e (size before relaxing)
 .debug_str     0x00003d30      0x618 CMakeFiles/13_demo_OLED_FLOAT.elf.dir/Drivers/STM32F1xx_HAL_Driver/Src/stm32f1xx_hal_uart.c.obj
                                0xdd8 (size before relaxing)
 .debug_str     0x00004348       0x5e CMakeFiles/13_demo_OLED_FLOAT.elf.dir/startup/startup_stm32f103xb.s.obj
                                 0xa2 (size before relaxing)

.comment        0x00000000       0x79
 .comment       0x00000000       0x79 CMakeFiles/13_demo_OLED_FLOAT.elf.dir/Core/Src/gpio.c.obj
                                 0x7a (size before relaxing)
 .comment       0x00000079       0x7a CMakeFiles/13_demo_OLED_FLOAT.elf.dir/Core/Src/i2c.c.obj
 .comment       0x00000079       0x7a CMakeFiles/13_demo_OLED_FLOAT.elf.dir/Core/Src/main.c.obj
 .comment       0x00000079       0x7a CMakeFiles/13_demo_OLED_FLOAT.elf.dir/Core/Src/mpu6050.c.obj
 .comment       0x00000079       0x7a CMakeFiles/13_demo_OLED_FLOAT.elf.dir/Core/Src/oled12864.c.obj
 .comment       0x00000079       0x7a CMakeFiles/13_demo_OLED_FLOAT.elf.dir/Core/Src/stm32f1xx_hal_msp.c.obj
 .comment       0x00000079       0x7a CMakeFiles/13_demo_OLED_FLOAT.elf.dir/Core/Src/stm32f1xx_it.c.obj
 .comment       0x00000079       0x7a CMakeFiles/13_demo_OLED_FLOAT.elf.dir/Core/Src/syscalls.c.obj
 .comment       0x00000079       0x7a CMakeFiles/13_demo_OLED_FLOAT.elf.dir/Core/Src/system_stm32f1xx.c.obj
 .comment       0x00000079       0x7a CMakeFiles/13_demo_OLED_FLOAT.elf.dir/Core/Src/usart.c.obj
 .comment       0x00000079       0x7a CMakeFiles/13_demo_OLED_FLOAT.elf.dir/Drivers/DMP/DMP_test.c.obj
 .comment       0x00000079       0x7a CMakeFiles/13_demo_OLED_FLOAT.elf.dir/Drivers/DMP/inv_mpu.c.obj
 .comment       0x00000079       0x7a CMakeFiles/13_demo_OLED_FLOAT.elf.dir/Drivers/DMP/inv_mpu_dmp_motion_driver.c.obj
 .comment       0x00000079       0x7a CMakeFiles/13_demo_OLED_FLOAT.elf.dir/Drivers/STM32F1xx_HAL_Driver/Src/stm32f1xx_hal.c.obj
 .comment       0x00000079       0x7a CMakeFiles/13_demo_OLED_FLOAT.elf.dir/Drivers/STM32F1xx_HAL_Driver/Src/stm32f1xx_hal_cortex.c.obj
 .comment       0x00000079       0x7a CMakeFiles/13_demo_OLED_FLOAT.elf.dir/Drivers/STM32F1xx_HAL_Driver/Src/stm32f1xx_hal_gpio.c.obj
 .comment       0x00000079       0x7a CMakeFiles/13_demo_OLED_FLOAT.elf.dir/Drivers/STM32F1xx_HAL_Driver/Src/stm32f1xx_hal_i2c.c.obj
 .comment       0x00000079       0x7a CMakeFiles/13_demo_OLED_FLOAT.elf.dir/Drivers/STM32F1xx_HAL_Driver/Src/stm32f1xx_hal_rcc.c.obj
 .comment       0x00000079       0x7a CMakeFiles/13_demo_OLED_FLOAT.elf.dir/Drivers/STM32F1xx_HAL_Driver/Src/stm32f1xx_hal_uart.c.obj

.debug_frame    0x00000000     0x3da8
 .debug_frame   0x00000000       0x38 CMakeFiles/13_demo_OLED_FLOAT.elf.dir/Core/Src/gpio.c.obj
 .debug_frame   0x00000038       0x60 CMakeFiles/13_demo_OLED_FLOAT.elf.dir/Core/Src/i2c.c.obj
 .debug_frame   0x00000098       0x58 CMakeFiles/13_demo_OLED_FLOAT.elf.dir/Core/Src/main.c.obj
 .debug_frame   0x000000f0       0xa4 CMakeFiles/13_demo_OLED_FLOAT.elf.dir/Core/Src/mpu6050.c.obj
 .debug_frame   0x00000194      0x3dc CMakeFiles/13_demo_OLED_FLOAT.elf.dir/Core/Src/oled12864.c.obj
 .debug_frame   0x00000570       0x28 CMakeFiles/13_demo_OLED_FLOAT.elf.dir/Core/Src/stm32f1xx_hal_msp.c.obj
 .debug_frame   0x00000598       0xa8 CMakeFiles/13_demo_OLED_FLOAT.elf.dir/Core/Src/stm32f1xx_it.c.obj
 .debug_frame   0x00000640      0x1a8 CMakeFiles/13_demo_OLED_FLOAT.elf.dir/Core/Src/syscalls.c.obj
 .debug_frame   0x000007e8       0x30 CMakeFiles/13_demo_OLED_FLOAT.elf.dir/Core/Src/system_stm32f1xx.c.obj
 .debug_frame   0x00000818       0x7c CMakeFiles/13_demo_OLED_FLOAT.elf.dir/Core/Src/usart.c.obj
 .debug_frame   0x00000894       0xd0 CMakeFiles/13_demo_OLED_FLOAT.elf.dir/Drivers/DMP/DMP_test.c.obj
 .debug_frame   0x00000964      0x63c CMakeFiles/13_demo_OLED_FLOAT.elf.dir/Drivers/DMP/inv_mpu.c.obj
 .debug_frame   0x00000fa0      0x36c CMakeFiles/13_demo_OLED_FLOAT.elf.dir/Drivers/DMP/inv_mpu_dmp_motion_driver.c.obj
 .debug_frame   0x0000130c      0x1cc CMakeFiles/13_demo_OLED_FLOAT.elf.dir/Drivers/STM32F1xx_HAL_Driver/Src/stm32f1xx_hal.c.obj
 .debug_frame   0x000014d8      0x12c CMakeFiles/13_demo_OLED_FLOAT.elf.dir/Drivers/STM32F1xx_HAL_Driver/Src/stm32f1xx_hal_cortex.c.obj
 .debug_frame   0x00001604       0xe8 CMakeFiles/13_demo_OLED_FLOAT.elf.dir/Drivers/STM32F1xx_HAL_Driver/Src/stm32f1xx_hal_gpio.c.obj
 .debug_frame   0x000016ec      0x970 CMakeFiles/13_demo_OLED_FLOAT.elf.dir/Drivers/STM32F1xx_HAL_Driver/Src/stm32f1xx_hal_i2c.c.obj
 .debug_frame   0x0000205c      0x190 CMakeFiles/13_demo_OLED_FLOAT.elf.dir/Drivers/STM32F1xx_HAL_Driver/Src/stm32f1xx_hal_rcc.c.obj
 .debug_frame   0x000021ec      0x5c4 CMakeFiles/13_demo_OLED_FLOAT.elf.dir/Drivers/STM32F1xx_HAL_Driver/Src/stm32f1xx_hal_uart.c.obj
 .debug_frame   0x000027b0       0xac d:/environment/gcc-arm-none-eabi/bin/../lib/gcc/arm-none-eabi/9.2.1/thumb/v7-m/nofp\libgcc.a(_arm_addsubdf3.o)
 .debug_frame   0x0000285c       0x24 d:/environment/gcc-arm-none-eabi/bin/../lib/gcc/arm-none-eabi/9.2.1/thumb/v7-m/nofp\libgcc.a(_arm_truncdfsf2.o)
 .debug_frame   0x00002880       0x4c d:/environment/gcc-arm-none-eabi/bin/../lib/gcc/arm-none-eabi/9.2.1/thumb/v7-m/nofp\libgcc.a(_arm_addsubsf3.o)
 .debug_frame   0x000028cc       0x38 d:/environment/gcc-arm-none-eabi/bin/../lib/gcc/arm-none-eabi/9.2.1/thumb/v7-m/nofp\libgcc.a(_arm_muldivsf3.o)
 .debug_frame   0x00002904       0xc8 d:/environment/gcc-arm-none-eabi/bin/../lib/gcc/arm-none-eabi/9.2.1/thumb/v7-m/nofp\libgcc.a(_arm_cmpsf2.o)
 .debug_frame   0x000029cc       0x24 d:/environment/gcc-arm-none-eabi/bin/../lib/gcc/arm-none-eabi/9.2.1/thumb/v7-m/nofp\libgcc.a(_arm_fixsfsi.o)
 .debug_frame   0x000029f0       0x24 d:/environment/gcc-arm-none-eabi/bin/../lib/gcc/arm-none-eabi/9.2.1/thumb/v7-m/nofp\libgcc.a(_arm_fixunssfsi.o)
 .debug_frame   0x00002a14       0x44 d:/environment/gcc-arm-none-eabi/bin/../lib/gcc/arm-none-eabi/9.2.1/thumb/v7-m/nofp\libgcc.a(_aeabi_ldivmod.o)
 .debug_frame   0x00002a58       0x34 d:/environment/gcc-arm-none-eabi/bin/../lib/gcc/arm-none-eabi/9.2.1/thumb/v7-m/nofp\libgcc.a(_udivmoddi4.o)
 .debug_frame   0x00002a8c       0x20 d:/environment/gcc-arm-none-eabi/bin/../lib/gcc/arm-none-eabi/9.2.1/../../../../arm-none-eabi/lib/thumb/v7-m/nofp\libg.a(lib_a-errno.o)
 .debug_frame   0x00002aac       0x2c d:/environment/gcc-arm-none-eabi/bin/../lib/gcc/arm-none-eabi/9.2.1/../../../../arm-none-eabi/lib/thumb/v7-m/nofp\libg.a(lib_a-init.o)
 .debug_frame   0x00002ad8       0x3c d:/environment/gcc-arm-none-eabi/bin/../lib/gcc/arm-none-eabi/9.2.1/../../../../arm-none-eabi/lib/thumb/v7-m/nofp\libg.a(lib_a-memcmp.o)
 .debug_frame   0x00002b14       0x38 d:/environment/gcc-arm-none-eabi/bin/../lib/gcc/arm-none-eabi/9.2.1/../../../../arm-none-eabi/lib/thumb/v7-m/nofp\libg.a(lib_a-memset.o)
 .debug_frame   0x00002b4c       0x74 d:/environment/gcc-arm-none-eabi/bin/../lib/gcc/arm-none-eabi/9.2.1/../../../../arm-none-eabi/lib/thumb/v7-m/nofp\libg.a(lib_a-printf.o)
 .debug_frame   0x00002bc0       0x4c d:/environment/gcc-arm-none-eabi/bin/../lib/gcc/arm-none-eabi/9.2.1/../../../../arm-none-eabi/lib/thumb/v7-m/nofp\libg.a(lib_a-puts.o)
 .debug_frame   0x00002c0c       0x20 d:/environment/gcc-arm-none-eabi/bin/../lib/gcc/arm-none-eabi/9.2.1/../../../../arm-none-eabi/lib/thumb/v7-m/nofp\libg.a(lib_a-strlen-stub.o)
 .debug_frame   0x00002c2c       0x8c d:/environment/gcc-arm-none-eabi/bin/../lib/gcc/arm-none-eabi/9.2.1/../../../../arm-none-eabi/lib/thumb/v7-m/nofp\libg.a(lib_a-vfprintf.o)
 .debug_frame   0x00002cb8       0x2c d:/environment/gcc-arm-none-eabi/bin/../lib/gcc/arm-none-eabi/9.2.1/../../../../arm-none-eabi/lib/thumb/v7-m/nofp\libg.a(lib_a-wsetup.o)
 .debug_frame   0x00002ce4       0x5c d:/environment/gcc-arm-none-eabi/bin/../lib/gcc/arm-none-eabi/9.2.1/../../../../arm-none-eabi/lib/thumb/v7-m/nofp\libg.a(lib_a-__call_atexit.o)
 .debug_frame   0x00002d40       0x20 d:/environment/gcc-arm-none-eabi/bin/../lib/gcc/arm-none-eabi/9.2.1/../../../../arm-none-eabi/lib/thumb/v7-m/nofp\libg.a(lib_a-atexit.o)
 .debug_frame   0x00002d60       0x8c d:/environment/gcc-arm-none-eabi/bin/../lib/gcc/arm-none-eabi/9.2.1/../../../../arm-none-eabi/lib/thumb/v7-m/nofp\libg.a(lib_a-dtoa.o)
 .debug_frame   0x00002dec       0x5c d:/environment/gcc-arm-none-eabi/bin/../lib/gcc/arm-none-eabi/9.2.1/../../../../arm-none-eabi/lib/thumb/v7-m/nofp\libg.a(lib_a-fflush.o)
 .debug_frame   0x00002e48      0x154 d:/environment/gcc-arm-none-eabi/bin/../lib/gcc/arm-none-eabi/9.2.1/../../../../arm-none-eabi/lib/thumb/v7-m/nofp\libg.a(lib_a-findfp.o)
 .debug_frame   0x00002f9c       0x34 d:/environment/gcc-arm-none-eabi/bin/../lib/gcc/arm-none-eabi/9.2.1/../../../../arm-none-eabi/lib/thumb/v7-m/nofp\libg.a(lib_a-fini.o)
 .debug_frame   0x00002fd0       0x8c d:/environment/gcc-arm-none-eabi/bin/../lib/gcc/arm-none-eabi/9.2.1/../../../../arm-none-eabi/lib/thumb/v7-m/nofp\libg.a(lib_a-freer.o)
 .debug_frame   0x0000305c       0x64 d:/environment/gcc-arm-none-eabi/bin/../lib/gcc/arm-none-eabi/9.2.1/../../../../arm-none-eabi/lib/thumb/v7-m/nofp\libg.a(lib_a-fvwrite.o)
 .debug_frame   0x000030c0       0x54 d:/environment/gcc-arm-none-eabi/bin/../lib/gcc/arm-none-eabi/9.2.1/../../../../arm-none-eabi/lib/thumb/v7-m/nofp\libg.a(lib_a-fwalk.o)
 .debug_frame   0x00003114       0x40 d:/environment/gcc-arm-none-eabi/bin/../lib/gcc/arm-none-eabi/9.2.1/../../../../arm-none-eabi/lib/thumb/v7-m/nofp\libg.a(lib_a-localeconv.o)
 .debug_frame   0x00003154       0xb0 d:/environment/gcc-arm-none-eabi/bin/../lib/gcc/arm-none-eabi/9.2.1/../../../../arm-none-eabi/lib/thumb/v7-m/nofp\libg.a(lib_a-lock.o)
 .debug_frame   0x00003204       0x6c d:/environment/gcc-arm-none-eabi/bin/../lib/gcc/arm-none-eabi/9.2.1/../../../../arm-none-eabi/lib/thumb/v7-m/nofp\libg.a(lib_a-makebuf.o)
 .debug_frame   0x00003270       0x4c d:/environment/gcc-arm-none-eabi/bin/../lib/gcc/arm-none-eabi/9.2.1/../../../../arm-none-eabi/lib/thumb/v7-m/nofp\libg.a(lib_a-mallocr.o)
 .debug_frame   0x000032bc       0x44 d:/environment/gcc-arm-none-eabi/bin/../lib/gcc/arm-none-eabi/9.2.1/../../../../arm-none-eabi/lib/thumb/v7-m/nofp\libg.a(lib_a-memchr-stub.o)
 .debug_frame   0x00003300       0x40 d:/environment/gcc-arm-none-eabi/bin/../lib/gcc/arm-none-eabi/9.2.1/../../../../arm-none-eabi/lib/thumb/v7-m/nofp\libg.a(lib_a-memmove.o)
 .debug_frame   0x00003340       0x30 d:/environment/gcc-arm-none-eabi/bin/../lib/gcc/arm-none-eabi/9.2.1/../../../../arm-none-eabi/lib/thumb/v7-m/nofp\libg.a(lib_a-mlock.o)
 .debug_frame   0x00003370      0x25c d:/environment/gcc-arm-none-eabi/bin/../lib/gcc/arm-none-eabi/9.2.1/../../../../arm-none-eabi/lib/thumb/v7-m/nofp\libg.a(lib_a-mprec.o)
 .debug_frame   0x000035cc       0x48 d:/environment/gcc-arm-none-eabi/bin/../lib/gcc/arm-none-eabi/9.2.1/../../../../arm-none-eabi/lib/thumb/v7-m/nofp\libg.a(lib_a-reallocr.o)
 .debug_frame   0x00003614       0x30 d:/environment/gcc-arm-none-eabi/bin/../lib/gcc/arm-none-eabi/9.2.1/../../../../arm-none-eabi/lib/thumb/v7-m/nofp\libg.a(lib_a-s_frexp.o)
 .debug_frame   0x00003644       0x2c d:/environment/gcc-arm-none-eabi/bin/../lib/gcc/arm-none-eabi/9.2.1/../../../../arm-none-eabi/lib/thumb/v7-m/nofp\libg.a(lib_a-sbrkr.o)
 .debug_frame   0x00003670       0x8c d:/environment/gcc-arm-none-eabi/bin/../lib/gcc/arm-none-eabi/9.2.1/../../../../arm-none-eabi/lib/thumb/v7-m/nofp\libg.a(lib_a-stdio.o)
 .debug_frame   0x000036fc       0x38 d:/environment/gcc-arm-none-eabi/bin/../lib/gcc/arm-none-eabi/9.2.1/../../../../arm-none-eabi/lib/thumb/v7-m/nofp\libg.a(lib_a-strncpy.o)
 .debug_frame   0x00003734       0xd0 d:/environment/gcc-arm-none-eabi/bin/../lib/gcc/arm-none-eabi/9.2.1/../../../../arm-none-eabi/lib/thumb/v7-m/nofp\libg.a(lib_a-vfiprintf.o)
 .debug_frame   0x00003804       0x30 d:/environment/gcc-arm-none-eabi/bin/../lib/gcc/arm-none-eabi/9.2.1/../../../../arm-none-eabi/lib/thumb/v7-m/nofp\libg.a(lib_a-writer.o)
 .debug_frame   0x00003834       0x34 d:/environment/gcc-arm-none-eabi/bin/../lib/gcc/arm-none-eabi/9.2.1/../../../../arm-none-eabi/lib/thumb/v7-m/nofp\libg.a(lib_a-__atexit.o)
 .debug_frame   0x00003868       0x28 d:/environment/gcc-arm-none-eabi/bin/../lib/gcc/arm-none-eabi/9.2.1/../../../../arm-none-eabi/lib/thumb/v7-m/nofp\libg.a(lib_a-callocr.o)
 .debug_frame   0x00003890       0x2c d:/environment/gcc-arm-none-eabi/bin/../lib/gcc/arm-none-eabi/9.2.1/../../../../arm-none-eabi/lib/thumb/v7-m/nofp\libg.a(lib_a-closer.o)
 .debug_frame   0x000038bc       0x3c d:/environment/gcc-arm-none-eabi/bin/../lib/gcc/arm-none-eabi/9.2.1/../../../../arm-none-eabi/lib/thumb/v7-m/nofp\libg.a(lib_a-fclose.o)
 .debug_frame   0x000038f8       0x98 d:/environment/gcc-arm-none-eabi/bin/../lib/gcc/arm-none-eabi/9.2.1/../../../../arm-none-eabi/lib/thumb/v7-m/nofp\libg.a(lib_a-fputwc.o)
 .debug_frame   0x00003990       0x2c d:/environment/gcc-arm-none-eabi/bin/../lib/gcc/arm-none-eabi/9.2.1/../../../../arm-none-eabi/lib/thumb/v7-m/nofp\libg.a(lib_a-fstatr.o)
 .debug_frame   0x000039bc       0x2c d:/environment/gcc-arm-none-eabi/bin/../lib/gcc/arm-none-eabi/9.2.1/../../../../arm-none-eabi/lib/thumb/v7-m/nofp\libg.a(lib_a-isattyr.o)
 .debug_frame   0x000039e8       0x54 d:/environment/gcc-arm-none-eabi/bin/../lib/gcc/arm-none-eabi/9.2.1/../../../../arm-none-eabi/lib/thumb/v7-m/nofp\libg.a(lib_a-locale.o)
 .debug_frame   0x00003a3c       0x30 d:/environment/gcc-arm-none-eabi/bin/../lib/gcc/arm-none-eabi/9.2.1/../../../../arm-none-eabi/lib/thumb/v7-m/nofp\libg.a(lib_a-lseekr.o)
 .debug_frame   0x00003a6c       0x4c d:/environment/gcc-arm-none-eabi/bin/../lib/gcc/arm-none-eabi/9.2.1/../../../../arm-none-eabi/lib/thumb/v7-m/nofp\libg.a(lib_a-mbtowc_r.o)
 .debug_frame   0x00003ab8       0x30 d:/environment/gcc-arm-none-eabi/bin/../lib/gcc/arm-none-eabi/9.2.1/../../../../arm-none-eabi/lib/thumb/v7-m/nofp\libg.a(lib_a-readr.o)
 .debug_frame   0x00003ae8       0x60 d:/environment/gcc-arm-none-eabi/bin/../lib/gcc/arm-none-eabi/9.2.1/../../../../arm-none-eabi/lib/thumb/v7-m/nofp\libg.a(lib_a-reent.o)
 .debug_frame   0x00003b48       0x40 d:/environment/gcc-arm-none-eabi/bin/../lib/gcc/arm-none-eabi/9.2.1/../../../../arm-none-eabi/lib/thumb/v7-m/nofp\libg.a(lib_a-wbuf.o)
 .debug_frame   0x00003b88       0x60 d:/environment/gcc-arm-none-eabi/bin/../lib/gcc/arm-none-eabi/9.2.1/../../../../arm-none-eabi/lib/thumb/v7-m/nofp\libg.a(lib_a-wcrtomb.o)
 .debug_frame   0x00003be8       0x3c d:/environment/gcc-arm-none-eabi/bin/../lib/gcc/arm-none-eabi/9.2.1/../../../../arm-none-eabi/lib/thumb/v7-m/nofp\libg.a(lib_a-wctomb_r.o)
 .debug_frame   0x00003c24       0x50 d:/environment/gcc-arm-none-eabi/bin/../lib/gcc/arm-none-eabi/9.2.1/thumb/v7-m/nofp\libgcc.a(_arm_muldivdf3.o)
 .debug_frame   0x00003c74       0xc4 d:/environment/gcc-arm-none-eabi/bin/../lib/gcc/arm-none-eabi/9.2.1/thumb/v7-m/nofp\libgcc.a(_arm_cmpdf2.o)
 .debug_frame   0x00003d38       0x20 d:/environment/gcc-arm-none-eabi/bin/../lib/gcc/arm-none-eabi/9.2.1/thumb/v7-m/nofp\libgcc.a(_arm_unorddf2.o)
 .debug_frame   0x00003d58       0x24 d:/environment/gcc-arm-none-eabi/bin/../lib/gcc/arm-none-eabi/9.2.1/thumb/v7-m/nofp\libgcc.a(_arm_fixdfsi.o)
 .debug_frame   0x00003d7c       0x2c d:/environment/gcc-arm-none-eabi/bin/../lib/gcc/arm-none-eabi/9.2.1/thumb/v7-m/nofp\libgcc.a(_aeabi_uldivmod.o)

.debug_loc      0x00000000     0xb947
 .debug_loc     0x00000000       0x67 CMakeFiles/13_demo_OLED_FLOAT.elf.dir/Core/Src/i2c.c.obj
 .debug_loc     0x00000067      0x140 CMakeFiles/13_demo_OLED_FLOAT.elf.dir/Core/Src/mpu6050.c.obj
 .debug_loc     0x000001a7     0x15aa CMakeFiles/13_demo_OLED_FLOAT.elf.dir/Core/Src/oled12864.c.obj
 .debug_loc     0x00001751       0x15 CMakeFiles/13_demo_OLED_FLOAT.elf.dir/Core/Src/stm32f1xx_hal_msp.c.obj
 .debug_loc     0x00001766      0x436 CMakeFiles/13_demo_OLED_FLOAT.elf.dir/Core/Src/syscalls.c.obj
 .debug_loc     0x00001b9c       0xff CMakeFiles/13_demo_OLED_FLOAT.elf.dir/Core/Src/system_stm32f1xx.c.obj
 .debug_loc     0x00001c9b       0xa7 CMakeFiles/13_demo_OLED_FLOAT.elf.dir/Core/Src/usart.c.obj
 .debug_loc     0x00001d42      0x428 CMakeFiles/13_demo_OLED_FLOAT.elf.dir/Drivers/DMP/DMP_test.c.obj
 .debug_loc     0x0000216a     0x1b3a CMakeFiles/13_demo_OLED_FLOAT.elf.dir/Drivers/DMP/inv_mpu.c.obj
 .debug_loc     0x00003ca4      0x88c CMakeFiles/13_demo_OLED_FLOAT.elf.dir/Drivers/DMP/inv_mpu_dmp_motion_driver.c.obj
 .debug_loc     0x00004530      0x141 CMakeFiles/13_demo_OLED_FLOAT.elf.dir/Drivers/STM32F1xx_HAL_Driver/Src/stm32f1xx_hal.c.obj
 .debug_loc     0x00004671      0x71f CMakeFiles/13_demo_OLED_FLOAT.elf.dir/Drivers/STM32F1xx_HAL_Driver/Src/stm32f1xx_hal_cortex.c.obj
 .debug_loc     0x00004d90      0x468 CMakeFiles/13_demo_OLED_FLOAT.elf.dir/Drivers/STM32F1xx_HAL_Driver/Src/stm32f1xx_hal_gpio.c.obj
 .debug_loc     0x000051f8     0x4108 CMakeFiles/13_demo_OLED_FLOAT.elf.dir/Drivers/STM32F1xx_HAL_Driver/Src/stm32f1xx_hal_i2c.c.obj
 .debug_loc     0x00009300      0x610 CMakeFiles/13_demo_OLED_FLOAT.elf.dir/Drivers/STM32F1xx_HAL_Driver/Src/stm32f1xx_hal_rcc.c.obj
 .debug_loc     0x00009910     0x2037 CMakeFiles/13_demo_OLED_FLOAT.elf.dir/Drivers/STM32F1xx_HAL_Driver/Src/stm32f1xx_hal_uart.c.obj
